(lp0
(lp1
V76561198357447621
p2
aI4
a(lp3
I4000
aI434110
aa(lp4
aa(lp5
V76561198268324749
p6
aI6
a(lp7
I221100
aI730
aa(lp8
I570
aaa(lp9
V76561198312906726
p10
aI25
a(lp11
I230410
aI291480
aI730
aI333930
aI444090
aI550900
aI581630
aI506540
aa(lp12
aa(lp13
V76561198088336981
p14
aI20
a(lp15
I41070
aI227300
aI304930
aI321040
aI730
aI333930
aI343780
aI438040
aI444090
aI513650
aa(lp16
I440
aaa(lp17
V76561198381123906
p18
aI1
a(lp19
I730
aa(lp20
aa(lp21
V76561198353466276
p22
aI1
a(lp23
I730
aa(lp24
aa(lp25
V76561198359214898
p26
aI26
a(lp27
I730
aa(lp28
aa(lp29
V76561198363280340
p30
aI3
a(lp31
I17430
aI730
aI343780
aa(lp32
aa(lp33
V76561198278936344
p34
aI28
a(lp35
I730
aa(lp36
I570
aaa(lp37
V76561198134568805
p38
aI65
a(lp39
I15120
aI17390
aI17440
aI24720
aI42700
aI42710
aI620
aI70600
aI201870
aI730
aI220740
aI208480
aI272350
aI253710
aI216250
aI44350
aI210770
aI72850
aI231430
aI241910
aI218620
aI206420
aI252950
aI243800
aI49520
aI249130
aI227300
aI270880
aI213670
aI284950
aI243470
aI220240
aI291480
aI314810
aI203140
aI239140
aI298110
aI319630
aI292030
aI377160
aI351970
aI421050
aI359550
aa(lp40
aa(lp41
V76561198379599611
p42
aI1
a(lp43
I730
aa(lp44
aa(lp45
V76561198167593374
p46
aI28
a(lp47
I730
aa(lp48
I570
aaa(lp49
V76561198335466039
p50
aI6
a(lp51
I730
aI321040
aa(lp52
aa(lp53
V76561198380321399
p54
aI26
a(lp55
I730
aa(lp56
aa(lp57
V76561198353383015
p58
aI2
a(lp59
I730
aa(lp60
aa(lp61
V76561198296936698
p62
aI5
a(lp63
I10
aI80
aI730
aa(lp64
aa(lp65
V76561198561443348
p66
aI2
a(lp67
I730
aa(lp68
I440
aaa(lp69
V76561198372453467
p70
aI17
a(lp71
I301520
aI304930
aI227940
aI333930
aI444090
aa(lp72
aa(lp73
V76561198371443982
p74
aI1
a(lp75
I730
aa(lp76
aa(lp77
V76561198352387400
p78
aI0
a(lp79
ag76
aa(lp80
V76561198172003259
p81
aI3
a(lp82
I730
aI431960
aa(lp83
aa(lp84
V76561198230740376
p85
aI42
a(lp86
I105600
aI219640
aI208090
aI212070
aI236390
aI272350
aI214420
aI218620
aI252490
aI217490
aI298240
aI301520
aI304930
aI274940
aI730
aI338180
aI381210
aa(lp87
I440
aI570
aaa(lp88
V76561198670047719
p89
aI26
a(lp90
I10
aI730
aa(lp91
aa(lp92
V76561198361199357
p93
aI1
a(lp94
I730
aa(lp95
aa(lp96
V76561198055728701
p97
aI59
a(lp98
I20540
aI620
aI35450
aI6370
aI230410
aI239220
aI252490
aI252950
aI263280
aI271590
aI730
aI255710
aI356370
aI407120
aI444090
aa(lp99
I440
aI570
aaa(lp100
V76561198379659776
p101
aI2
a(lp102
I433850
aa(lp103
aa(lp104
V76561198331685775
p105
aI4
a(lp106
I433850
aa(lp107
I570
aaa(lp108
V76561198372228048
p109
aI4
a(lp110
I109600
aI236390
aI730
aa(lp111
I440
aaa(lp112
V76561198373385491
p113
aI2
a(lp114
I433850
aa(lp115
aa(lp116
V76561198123274409
p117
aI71
a(lp118
I220
aI4000
aI10090
aI550
aI33440
aI72850
aI212630
aI212910
aI205100
aI227300
aI218230
aI236390
aI253710
aI242860
aI218620
aI209000
aI252490
aI107410
aI270850
aI272860
aI274920
aI301520
aI304930
aI291480
aI24010
aI239140
aI730
aI298110
aI234630
aI346010
aI234140
aI225540
aI359550
aI489830
aI447040
aI578080
aa(lp119
I440
aaa(lp120
V76561198042017102
p121
aI13
a(lp122
I8190
aI252950
aI243470
aI730
aI326460
aI444090
aa(lp123
I570
aaa(lp124
V76561197967437820
p125
aI30
a(lp126
I10
aI20
aI30
aI50
aI300
aI7650
aI7760
aI500
aI550
aI730
aI266840
aI221380
aI354640
aI255710
aa(lp127
I440
aaa(lp128
V76561198361054366
p129
aI4
a(lp130
I433850
aa(lp131
aa(lp132
V76561198377680961
p133
aI2
a(lp134
I433850
aa(lp135
aa(lp136
V76561198365508614
p137
aI4
a(lp138
I730
aa(lp139
aa(lp140
V76561198382354799
p141
aI1
a(lp142
I730
aa(lp143
aa(lp144
V76561198066488825
p145
aI147
a(lp146
I4000
aI12210
aI550
aI43110
aI8190
aI105600
aI57690
aI104900
aI28050
aI201280
aI215160
aI226700
aI105000
aI231140
aI113400
aI272350
aI253710
aI8930
aI107410
aI221380
aI233450
aI224600
aI220200
aI72850
aI242760
aI242920
aI233250
aI244770
aI244850
aI214950
aI218620
aI239820
aI206420
aI251570
aI252490
aI241540
aI220260
aI49520
aI245470
aI247730
aI260930
aI263280
aI211820
aI221100
aI225420
aI271590
aI237870
aI275850
aI282070
aI246620
aI33930
aI290080
aI295110
aI433850
aI299740
aI299860
aI301520
aI58610
aI312210
aI318020
aI65980
aI304730
aI324080
aI239140
aI330070
aI730
aI305620
aI301910
aI346010
aI346110
aI298630
aI255710
aI306130
aI359960
aI227300
aI322330
aI377160
aI383120
aI384890
aI394310
aI404920
aI413150
aI282560
aI418370
aI310380
aI427520
aI428690
aI431240
aI446800
aI365590
aI359550
aI521150
aI460920
aI568570
aI578080
aI616560
aa(lp147
aa(lp148
V76561198380826180
p149
aI4
a(lp150
I730
aa(lp151
I440
aI570
aI259080
aaa(lp152
V76561198099138866
p153
aI4
a(lp154
I433850
aa(lp155
I570
aaa(lp156
V76561198383613635
p157
aI1
a(lp158
I730
aa(lp159
aa(lp160
V76561198315961541
p161
aI14
a(lp162
I4000
aI301520
aI730
aI363970
aI386360
aI438040
aa(lp163
I440
aaa(lp164
V76561198378200027
p165
aI2
a(lp166
I433850
aa(lp167
aa(lp168
V76561198247214308
p169
aI2
a(lp170
I271590
aI730
aa(lp171
aa(lp172
V76561198022288116
p173
aI0
a(lp174
ag171
aa(lp175
V76561198354508101
p176
aI2
a(lp177
I730
aa(lp178
aa(lp179
V76561198140289724
p180
aI10
a(lp181
a(lp182
I570
aaa(lp183
V76561198722671991
p184
aI2
a(lp185
I433850
aa(lp186
aa(lp187
V76561198285765445
p188
aI3
a(lp189
a(lp190
I570
aaa(lp191
V76561198373374553
p192
aI4
a(lp193
I433850
aI439700
aI359550
aa(lp194
aa(lp195
V76561198376427705
p196
aI1
a(lp197
I730
aa(lp198
aa(lp199
V76561198346477010
p200
aI15
a(lp201
I730
aI433850
aa(lp202
aa(lp203
V76561198360021438
p204
aI3
a(lp205
I730
aI433850
aa(lp206
aa(lp207
V76561198371446134
p208
aI4
a(lp209
I730
aa(lp210
I570
aaa(lp211
V76561198090550535
p212
aI6
a(lp213
I251570
aI252490
aI433850
aa(lp214
I570
aaa(lp215
V76561198369306839
p216
aI34
a(lp217
I113400
aI730
aI335240
aI444090
aa(lp218
aa(lp219
V76561198260557274
p220
aI13
a(lp221
I252950
aI268420
aI227940
aI280790
aI438490
aI453480
aa(lp222
I570
aaa(lp223
V76561198386133359
p224
aI2
a(lp225
I433850
aa(lp226
aa(lp227
V76561198242868080
p228
aI29
a(lp229
I227300
aI113400
aI218620
aI107410
aI222880
aI304930
aI227940
aI730
aI391460
aI280790
aa(lp230
aa(lp231
V76561198030421381
p232
aI17
a(lp233
I730
aI12210
aI12220
aI222880
aI322330
aa(lp234
I440
aI630
aaa(lp235
V76561198384423237
p236
aI2
a(lp237
I730
aa(lp238
I570
aaa(lp239
V76561198089439684
p240
aI60
a(lp241
I220
aI4000
aI10090
aI550
aI8930
aI40800
aI620
aI113200
aI10
aI80
aI240
aI730
aI204360
aI220260
aI219640
aI227300
aI233720
aI218620
aI239820
aI252950
aI221910
aI263760
aI271590
aI224480
aI304930
aI226580
aI321040
aI327890
aI250900
aI346010
aI391040
aI431240
aa(lp242
I440
aI570
aaa(lp243
V76561198529135866
p244
aI47
a(lp245
I63380
aI251570
aI252950
aI221380
aI299360
aI431240
aI550010
aI588430
aa(lp246
aa(lp247
V76561198353192541
p248
aI7
a(lp249
I252950
aI730
aa(lp250
I440
aaa(lp251
V76561198363735550
p252
aI2
a(lp253
a(lp254
I570
aaa(lp255
V76561198357273756
p256
aI0
a(lp257
ag254
aa(lp258
V76561198361115878
p259
aI4
a(lp260
I433850
aI295110
aa(lp261
aa(lp262
V76561198335409925
p263
aI5
a(lp264
I730
aI242760
aI444090
aa(lp265
aa(lp266
V76561198335717692
p267
aI20
a(lp268
I202990
aI212910
aI730
aI346900
aI433340
aI444090
aI452230
aI545650
aa(lp269
aa(lp270
V76561198384285271
p271
aI3
a(lp272
I433850
aa(lp273
aa(lp274
V76561198379430802
p275
aI2
a(lp276
I730
aa(lp277
aa(lp278
V76561198245957614
p279
aI17
a(lp280
I10
aI236390
aI286940
aI730
aI407250
aI444090
aa(lp281
I440
aaa(lp282
V76561198334078059
p283
aI54
a(lp284
I4000
aI730
aI202970
aI202990
aI212910
aI252950
aI291410
aI291480
aI291550
aI444090
aa(lp285
aa(lp286
V76561198377507320
p287
aI2
a(lp288
I433850
aa(lp289
aa(lp290
V76561198370160496
p291
aI2
a(lp292
I433850
aa(lp293
aa(lp294
V76561198384076086
p295
aI1
a(lp296
I730
aa(lp297
aa(lp298
V76561198379050069
p299
aI7
a(lp300
I730
aI386360
aI444090
aa(lp301
aa(lp302
V76561198329535578
p303
aI5
a(lp304
I381210
aI433850
aa(lp305
aa(lp306
V76561198380023668
p307
aI2
a(lp308
I433850
aa(lp309
aa(lp310
V76561198325843381
p311
aI7
a(lp312
a(lp313
I570
aaa(lp314
V76561198107152930
p315
aI32
a(lp316
I223850
aI730
aI242050
aI391220
aI365590
aa(lp317
aa(lp318
V76561198349740645
p319
aI15
a(lp320
I730
aI218620
aI389570
aI466910
aa(lp321
aa(lp322
V76561198362457910
p323
aI4
a(lp324
I550
aI433850
aa(lp325
aa(lp326
V76561197979732224
p327
aI13
a(lp328
I10
aI730
aI575640
aa(lp329
aa(lp330
V76561198365521735
p331
aI1
a(lp332
I730
aa(lp333
aa(lp334
V76561198463569711
p335
aI0
a(lp336
ag333
aa(lp337
V76561198184359573
p338
aI19
a(lp339
I271590
aI730
aI444090
aI537180
aa(lp340
I570
aaa(lp341
V76561198112198671
p342
aI73
a(lp343
I220
aI240
aI4000
aI400
aI33910
aI10150
aI550
aI45700
aI34030
aI24780
aI12210
aI207490
aI219640
aI220240
aI202970
aI202990
aI212910
aI226700
aI236390
aI224260
aI203160
aI242760
aI218620
aI239820
aI251570
aI234670
aI242050
aI7670
aI221100
aI247730
aI271590
aI274920
aI239160
aI228180
aI304050
aI304930
aI265550
aI221380
aI220440
aI329050
aI730
aI298110
aI319630
aI362890
aI107410
aI377160
aI379720
aa(lp344
I440
aI17500
aaa(lp345
V76561198323554572
p346
aI16
a(lp347
I730
aI321040
aI386360
aa(lp348
aa(lp349
V76561198377201242
p350
aI4
a(lp351
I433850
aI295110
aa(lp352
aa(lp353
V76561198346039016
p354
aI6
a(lp355
I730
aa(lp356
I570
aaa(lp357
V76561198321334366
p358
aI5
a(lp359
I224260
aI301640
aI433850
aI381210
aa(lp360
aa(lp361
V76561198187581567
p362
aI12
a(lp363
I8930
aI302510
aI730
aI407250
aI444200
aa(lp364
I570
aaa(lp365
V76561198326506578
p366
aI3
a(lp367
I730
aa(lp368
aa(lp369
V76561198354671012
p370
aI3
a(lp371
I236390
aI730
aa(lp372
I570
aaa(lp373
V76561198372728639
p374
aI14
a(lp375
I109600
aI730
aI578310
aI506540
aa(lp376
I440
aI570
aaa(lp377
V76561198272340760
p378
aI3
a(lp379
I227300
aI730
aI459510
aa(lp380
aa(lp381
V76561198377323343
p382
aI6
a(lp383
I281990
aI433850
aI578080
aa(lp384
I570
aaa(lp385
V76561198715234466
p386
aI1
a(lp387
I730
aa(lp388
aa(lp389
V76561198374475168
p390
aI3
a(lp391
I433850
aa(lp392
aa(lp393
V76561198379222196
p394
aI2
a(lp395
I730
aI459510
aa(lp396
aa(lp397
V76561198569523690
p398
aI3
a(lp399
I730
aI252490
aa(lp400
aa(lp401
V76561198372514181
p402
aI2
a(lp403
I730
aa(lp404
aa(lp405
V76561198384949958
p406
aI2
a(lp407
I433850
aa(lp408
aa(lp409
V76561198314656151
p410
aI46
a(lp411
I24960
aI38720
aI298240
aI304930
aI730
aI339280
aI444090
aI513000
aI534500
aa(lp412
I440
aI570
aI630
aaa(lp413
V76561198348467402
p414
aI4
a(lp415
I730
aI459510
aa(lp416
aa(lp417
V76561198365215022
p418
aI4
a(lp419
I730
aa(lp420
aa(lp421
V76561198356240014
p422
aI2
a(lp423
I730
aa(lp424
aa(lp425
V76561198315226569
p426
aI1
a(lp427
I730
aa(lp428
aa(lp429
V76561198385373620
p430
aI2
a(lp431
I433850
aa(lp432
aa(lp433
V76561198380320718
p434
aI2
a(lp435
I433850
aa(lp436
aa(lp437
V76561198263236828
p438
aI31
a(lp439
I218230
aI236390
aI240320
aI218620
aI252490
aI286940
aI291480
aI730
aI386360
aI291550
aI444090
aa(lp440
aa(lp441
V76561198056308417
p442
aI8
a(lp443
I10
aI730
aa(lp444
I440
aI570
aaa(lp445
V76561198265976388
p446
aI4
a(lp447
I730
aa(lp448
aa(lp449
V76561198378836575
p450
aI5
a(lp451
I271590
aI433850
aI295110
aa(lp452
aa(lp453
V76561198373802197
p454
aI0
a(lp455
ag452
aa(lp456
V76561198380540934
p457
aI1
a(lp458
I730
aa(lp459
aa(lp460
V76561198382629063
p461
aI6
a(lp462
I433850
aa(lp463
I570
aaa(lp464
V76561198378799314
p465
aI6
a(lp466
I296300
aI730
aa(lp467
aa(lp468
V76561198373292541
p469
aI4
a(lp470
I433850
aI295110
aa(lp471
aa(lp472
V76561198375367235
p473
aI4
a(lp474
I730
aI564710
aI547680
aa(lp475
aa(lp476
V76561198380436318
p477
aI1
a(lp478
I730
aa(lp479
aa(lp480
V76561198386809414
p481
aI1
a(lp482
I730
aa(lp483
aa(lp484
V76561198354983483
p485
aI2
a(lp486
I730
aa(lp487
aa(lp488
V76561198271954942
p489
aI2
a(lp490
I730
aI291550
aa(lp491
aa(lp492
V76561197961166369
p493
aI24
a(lp494
I730
aI219150
aI274170
aI431960
aI391220
aI433850
aa(lp495
I570
aaa(lp496
V76561198343398409
p497
aI17
a(lp498
I10
aI240
aI304930
aI227940
aI730
aI444200
aa(lp499
aa(lp500
V76561198159328956
p501
aI35
a(lp502
I4000
aI105600
aI113200
aI214340
aI273110
aI41050
aI227780
aI304930
aI730
aI335330
aI339610
aa(lp503
I440
aaa(lp504
V76561198307529504
p505
aI13
a(lp506
I4000
aI304930
aI730
aI322330
aI291550
aI280790
aI444090
aa(lp507
aa(lp508
V76561198377595525
p509
aI2
a(lp510
I433850
aa(lp511
aa(lp512
V76561198327898657
p513
aI5
a(lp514
I730
aI381210
aI433850
aa(lp515
aa(lp516
V76561198375157990
p517
aI2
a(lp518
I433850
aa(lp519
aa(lp520
V76561198372934792
p521
aI2
a(lp522
I433850
aa(lp523
aa(lp524
V76561198350149580
p525
aI9
a(lp526
I4000
aI113400
aI730
aa(lp527
aa(lp528
V76561198362787822
p529
aI0
a(lp530
ag527
aa(lp531
V76561198384280348
p532
aI1
a(lp533
I730
aa(lp534
aa(lp535
V76561198371724827
p536
aI2
a(lp537
I433850
aa(lp538
aa(lp539
V76561198387541001
p540
aI2
a(lp541
I433850
aa(lp542
aa(lp543
V76561198337970727
p544
aI10
a(lp545
I301520
aI291550
aI389570
aI280790
aI429180
aa(lp546
aa(lp547
V76561198387946656
p548
aI2
a(lp549
I730
aa(lp550
aa(lp551
V76561198338719152
p552
aI9
a(lp553
I4000
aI204120
aI730
aa(lp554
aa(lp555
V76561198312044131
p556
aI12
a(lp557
I230410
aI218620
aI321040
aI730
aI223470
aI578310
aa(lp558
aa(lp559
V76561198315467152
p560
aI3
a(lp561
I730
aa(lp562
aa(lp563
V76561198268214306
p564
aI0
a(lp565
ag562
aa(lp566
V76561198190814582
p567
aI26
a(lp568
I12210
aI17430
aI24240
aI207610
aI203160
aI35720
aI206420
aI304930
aI730
aI322330
aI291550
aI234140
aI398710
aI555570
aa(lp569
aa(lp570
V76561198369100314
p571
aI2
a(lp572
I433850
aa(lp573
aa(lp574
V76561198272366047
p575
aI20
a(lp576
I4000
aI34870
aI218620
aI302830
aI304930
aI232890
aI238320
aI730
aI369200
aI434570
aI444090
aI295110
aI273350
aI252950
aa(lp577
I440
aaa(lp578
V76561198041246545
p579
aI173
a(lp580
I10
aI80
aI240
aI300
aI320
aI220
aI4000
aI550
aI72400
aI620
aI96100
aI9200
aI42680
aI42690
aI20920
aI204180
aI730
aI49520
aI217490
aI202970
aI202990
aI212910
aI220440
aI104700
aI113400
aI223710
aI224260
aI239220
aI8870
aI1250
aI220240
aI237110
aI218620
aI253980
aI234670
aI209160
aI209170
aI262150
aI269790
aI270550
aI271590
aI272510
aI281920
aI291010
aI307230
aI308000
aI314020
aI313830
aI222900
aI317250
aI238320
aI331470
aI333930
aI339610
aI345520
aI287290
aI353550
aI235540
aI303390
aI339800
aI357070
aI368950
aI370710
aI371670
aI322330
aI380020
aI385200
aI395980
aI410590
aI432150
aI396160
aI418950
aI431260
aI431960
aI331710
aI354850
aI368900
aI397620
aI416270
aI431270
aI440760
aI448780
aI460960
aI463210
aI381210
aI466910
aI487220
aI489220
aI495890
aI495910
aI273350
aI503300
aI508190
aI292030
aI527990
aI540020
aI436520
aI568810
aI569610
aI575550
aI578080
aa(lp581
I440
aI570
aI24200
aaa(lp582
V76561198256844762
p583
aI12
a(lp584
I730
aI433850
aI444090
aI359550
aI436520
aI506540
aa(lp585
aa(lp586
V76561198377673529
p587
aI2
a(lp588
I433850
aa(lp589
aa(lp590
V76561198263720741
p591
aI118
a(lp592
I70100
aI209080
aI99900
aI113400
aI218620
aI285010
aI351030
aI299460
aI301750
aI304930
aI306410
aI291480
aI331710
aI354850
aI368900
aI432150
aI730
aI355920
aI362610
aI374670
aI382120
aI388870
aI392050
aI385200
aI395980
aI410590
aI397620
aI416270
aI431270
aI314700
aI329950
aI344750
aI373110
aI383030
aI392870
aI407740
aI407750
aI457930
aI457940
aI473580
aI473620
aI473630
aI473640
aI473650
aI486340
aI491250
aI516230
aI400250
aI460660
aI422100
aI428430
aI434250
aI444220
aI447880
aI462370
aI516700
aI449220
aI459510
aI466730
aI485310
aI486820
aI504490
aI522570
aI533300
aI541370
aI489520
aI562270
aI575490
aI581620
aI586380
aI595340
aa(lp593
I440
aaa(lp594
V76561198305278880
p595
aI7
a(lp596
I227300
aI291480
aI730
aa(lp597
aa(lp598
V76561198383689638
p599
aI1
a(lp600
I730
aa(lp601
aa(lp602
V76561198365990364
p603
aI1
a(lp604
I730
aa(lp605
aa(lp606
V76561198382292864
p607
aI2
a(lp608
I433850
aa(lp609
aa(lp610
V76561198381704017
p611
aI3
a(lp612
I730
aI356670
aa(lp613
aa(lp614
V76561198326603627
p615
aI8
a(lp616
I208090
aI730
aI299360
aI444090
aa(lp617
I440
aaa(lp618
V76561198081216271
p619
aI11
a(lp620
I620
aI730
aI202970
aI202990
aI212910
aI209160
aa(lp621
aa(lp622
V76561198316112814
p623
aI14
a(lp624
I230410
aI238960
aI252950
aI730
aI346110
aI291550
aI413150
aa(lp625
I440
aaa(lp626
V76561198375202397
p627
aI1
a(lp628
I730
aa(lp629
aa(lp630
V76561198345770735
p631
aI4
a(lp632
I227940
aI730
aa(lp633
aa(lp634
V76561198187119025
p635
aI4
a(lp636
I4000
aI730
aa(lp637
I440
aaa(lp638
V76561198157633239
p639
aI9
a(lp640
I730
aI218230
aI227940
aI321040
aI239140
aa(lp641
I440
aaa(lp642
V76561198300485587
p643
aI7
a(lp644
I730
aI433850
aa(lp645
aa(lp646
V76561198367195296
p647
aI1
a(lp648
I730
aa(lp649
aa(lp650
V76561198265474972
p651
aI10
a(lp652
I227300
aI304930
aI730
aI407250
aa(lp653
aa(lp654
V76561198307316351
p655
aI13
a(lp656
I730
aI291550
aI433850
aI504370
aa(lp657
aa(lp658
V76561198373679278
p659
aI3
a(lp660
I730
aI550900
aa(lp661
aa(lp662
V76561198378309993
p663
aI2
a(lp664
I433850
aa(lp665
aa(lp666
V76561198388528100
p667
aI5
a(lp668
I730
aa(lp669
aa(lp670
V76561198363449649
p671
aI5
a(lp672
I730
aa(lp673
aa(lp674
V76561198372673184
p675
aI2
a(lp676
I433850
aa(lp677
aa(lp678
V76561198344130584
p679
aI6
a(lp680
I251570
aI271590
aI730
aI433850
aa(lp681
aa(lp682
V76561198254726333
p683
aI10
a(lp684
I730
aI295110
aI433850
aa(lp685
aa(lp686
V76561198239136658
p687
aI43
a(lp688
I201700
aI11020
aI107900
aI236390
aI272350
aI253710
aI252950
aI286940
aI291480
aI227940
aI730
aI407250
aI444090
aI319630
aI541180
aa(lp689
aa(lp690
V76561198385825562
p691
aI6
a(lp692
I304930
aI730
aI299360
aa(lp693
aa(lp694
V76561198341489149
p695
aI6
a(lp696
I221040
aI431960
aI433850
aI439700
aa(lp697
aa(lp698
V76561198376130040
p699
aI4
a(lp700
I433850
aa(lp701
aa(lp702
V76561198309123570
p703
aI11
a(lp704
I730
aI381210
aI391720
aI433850
aI295110
aI447040
aI578080
aa(lp705
I570
aaa(lp706
V76561198386314643
p707
aI2
a(lp708
I433850
aa(lp709
aa(lp710
V76561198373359643
p711
aI2
a(lp712
I730
aa(lp713
aa(lp714
V76561198363644077
p715
aI2
a(lp716
I252490
aI730
aa(lp717
aa(lp718
V76561198351097196
p719
aI1
a(lp720
I730
aa(lp721
aa(lp722
V76561198386680281
p723
aI2
a(lp724
I433850
aa(lp725
aa(lp726
V76561198346978240
p727
aI4
a(lp728
I730
aI436150
aI304050
aa(lp729
aa(lp730
V76561198382177214
p731
aI2
a(lp732
I433850
aa(lp733
aa(lp734
V76561198271012199
p735
aI23
a(lp736
I4000
aI70000
aI113400
aI263500
aI286940
aI304930
aI730
aI346330
aI427730
aI444090
aa(lp737
I440
aaa(lp738
V76561198353584768
p739
aI4
a(lp740
I218620
aI730
aI437220
aI227300
aa(lp741
aa(lp742
V76561198370283541
p743
aI1
a(lp744
I730
aa(lp745
aa(lp746
V76561198357213281
p747
aI1
a(lp748
I730
aa(lp749
aa(lp750
V76561198193707197
p751
aI11
a(lp752
I253710
aI730
aI380600
aI444090
aa(lp753
I570
aaa(lp754
V76561198314326033
p755
aI2
a(lp756
a(lp757
I570
aaa(lp758
V76561198120212181
p759
aI67
a(lp760
I6000
aI620
aI2990
aI200260
aI12110
aI51100
aI203160
aI218620
aI265930
aI550
aI304930
aI318430
aI10
aI730
aI8870
aI6020
aI6060
aI32500
aI386360
aI444200
aa(lp761
I570
aaa(lp762
V76561198184169554
p763
aI19
a(lp764
I10
aI227300
aI271590
aI203140
aI730
aI359550
aa(lp765
aa(lp766
V76561198387263779
p767
aI2
a(lp768
I433850
aa(lp769
aa(lp770
V76561198211704921
p771
aI14
a(lp772
I10
aI240
aI253710
aI222880
aI730
aa(lp773
aa(lp774
V76561198345674236
p775
aI1
a(lp776
I730
aa(lp777
aa(lp778
V76561198218895453
p779
aI14
a(lp780
I304930
aI10
aI730
aI444090
aa(lp781
I570
aaa(lp782
V76561198334484197
p783
aI3
a(lp784
I730
aI291480
aa(lp785
aa(lp786
V76561198374373615
p787
aI36
a(lp788
I285130
aI299260
aI304050
aI304930
aI306350
aI308000
aI291480
aI730
aI280790
aI331710
aI354850
aI368900
aI385200
aI395980
aI397620
aI410590
aI416270
aI431270
aI432150
aI444090
aI449220
aI302670
aI518100
aI562270
aI578080
aI506540
aa(lp789
aa(lp790
V76561198140088110
p791
aI5
a(lp792
a(lp793
I570
aaa(lp794
V76561198379648082
p795
aI0
a(lp796
ag793
aa(lp797
V76561198368474114
p798
aI4
a(lp799
I10
aI730
aa(lp800
aa(lp801
V76561198335811227
p802
aI3
a(lp803
a(lp804
I570
aaa(lp805
V76561198377609146
p806
aI3
a(lp807
I433850
aa(lp808
aa(lp809
V76561198363044383
p810
aI28
a(lp811
I284950
aI351030
aI314700
aI730
aI344750
aI373110
aI383030
aI392870
aI407750
aI397620
aI416270
aI431270
aI447880
aI462370
aI457940
aI459510
aI473580
aI473630
aI473640
aI485310
aI486340
aI546450
aI562270
aa(lp812
aa(lp813
V76561198364572802
p814
aI7
a(lp815
I730
aI271590
aI518790
aa(lp816
aa(lp817
V76561198362485691
p818
aI0
a(lp819
ag816
aa(lp820
V76561198377560674
p821
aI2
a(lp822
I433850
aa(lp823
aa(lp824
V76561198372309706
p825
aI14
a(lp826
I201790
aI252490
aI730
aI444090
aa(lp827
aa(lp828
V76561198387866299
p829
aI1
a(lp830
I730
aa(lp831
aa(lp832
V76561198343707525
p833
aI7
a(lp834
a(lp835
I570
aaa(lp836
V76561198111173289
p837
aI3
a(lp838
I4000
aa(lp839
aa(lp840
V76561198355248949
p841
aI12
a(lp842
I304930
aI730
aI335330
aI380600
aI389570
aI299360
aa(lp843
I440
aaa(lp844
V76561198385272211
p845
aI0
a(lp846
ag843
aa(lp847
V76561198368514217
p848
aI1
a(lp849
I730
aa(lp850
aa(lp851
V76561198351312497
p852
aI14
a(lp853
I730
aa(lp854
I440
aaa(lp855
V76561198382968253
p856
aI1
a(lp857
I730
aa(lp858
aa(lp859
V76561198342005353
p860
aI8
a(lp861
I4700
aI550
aI730
aa(lp862
aa(lp863
V76561198355513396
p864
aI8
a(lp865
I301520
aI304030
aI730
aI361420
aI291550
aI578080
aa(lp866
aa(lp867
V76561198215372727
p868
aI14
a(lp869
I230410
aI252490
aI304930
aI291480
aI730
aI433850
aI444090
aI466910
aa(lp870
aa(lp871
V76561198373249393
p872
aI2
a(lp873
I433850
aa(lp874
aa(lp875
V76561198330924936
p876
aI26
a(lp877
I291480
aI227940
aI730
aI286690
aI287390
aI359550
aI368500
aI271590
aI346010
aI223850
aI444200
aI534500
aI311560
aI578080
aI326460
aa(lp878
aa(lp879
V76561198202347336
p880
aI8
a(lp881
I221100
aI295110
aI433850
aI107410
aI578080
aa(lp882
aa(lp883
V76561198375334619
p884
aI2
a(lp885
I433850
aa(lp886
aa(lp887
V76561198342623546
p888
aI7
a(lp889
I730
aI444090
aa(lp890
aa(lp891
V76561198294382053
p892
aI27
a(lp893
I70
aI263500
aI304930
aI227940
aI730
aI291550
aI427270
aI444090
aI449140
aI444200
aI558100
aa(lp894
aa(lp895
V76561198134608825
p896
aI4
a(lp897
I433850
aa(lp898
I570
aaa(lp899
V76561198314765281
p900
aI5
a(lp901
I730
aI252490
aI433850
aa(lp902
aa(lp903
V76561198305151820
p904
aI75
a(lp905
I4000
aI550
aI113200
aI204100
aI49520
aI99900
aI252950
aI286940
aI730
aI394310
aI444090
aI207140
aI482920
aa(lp906
I440
aaa(lp907
V76561198234215192
p908
aI12
a(lp909
I202990
aI730
aa(lp910
aa(lp911
V76561198091239006
p912
aI35
a(lp913
I4000
aI218620
aI252950
aI273110
aI282660
aI304930
aI312990
aI730
aI333930
aI381210
aI427730
aI431240
aI431960
aI433850
aI444090
aI516750
aa(lp914
I440
aaa(lp915
V76561198385137136
p916
aI2
a(lp917
I730
aa(lp918
aa(lp919
V76561198387396055
p920
aI2
a(lp921
I433850
aa(lp922
aa(lp923
V76561198198587561
p924
aI7
a(lp925
I219740
aI322330
aI243870
aI730
aI213670
aa(lp926
aa(lp927
V76561198261558064
p928
aI27
a(lp929
I730
aa(lp930
aa(lp931
V76561198390225991
p932
aI0
a(lp933
ag930
aa(lp934
V76561198382581354
p935
aI5
a(lp936
I730
aa(lp937
I440
aaa(lp938
V76561198372709839
p939
aI2
a(lp940
I433850
aa(lp941
aa(lp942
V76561198362283155
p943
aI4
a(lp944
I730
aI444090
aa(lp945
aa(lp946
V76561198376397769
p947
aI3
a(lp948
I304930
aI730
aa(lp949
I570
aaa(lp950
V76561198344121193
p951
aI5
a(lp952
I433850
aa(lp953
aa(lp954
V76561198329369010
p955
aI22
a(lp956
a(lp957
I570
aaa(lp958
V76561198061460274
p959
aI32
a(lp960
I240
aI4000
aI550
aI730
aI109600
aI113400
aI208090
aI236390
aI242760
aI218620
aI252950
aI227940
aI333930
aI363970
aI368360
aI376570
aI407530
aI311210
aI368500
aI427270
aI433850
aI524900
aI578080
aa(lp961
I440
aaa(lp962
V76561198365076496
p963
aI6
a(lp964
I236390
aI730
aI448780
aa(lp965
aa(lp966
V76561198295230785
p967
aI13
a(lp968
I227300
aI271590
aI48700
aI730
aI335240
aI291550
aI407250
aI433850
aI444090
aI459510
aa(lp969
aa(lp970
V76561198095524715
p971
aI77
a(lp972
I4000
aI730
aI109600
aI107410
aI209000
aI550
aI271590
aI282660
aI295110
aI433850
aI302510
aI322330
aI389430
aI444090
aI359550
aI578080
aa(lp973
aa(lp974
V76561198164995663
p975
aI6
a(lp976
I295110
aI433850
aa(lp977
aa(lp978
V76561198242476668
p979
aI4
a(lp980
I218620
aI252950
aI730
aI459510
aa(lp981
aa(lp982
V76561198371673154
p983
aI6
a(lp984
I10
aI282660
aI730
aa(lp985
aa(lp986
V76561198369119067
p987
aI2
a(lp988
I730
aa(lp989
aa(lp990
V76561198368003227
p991
aI2
a(lp992
I433850
aa(lp993
aa(lp994
V76561198357738035
p995
aI1
a(lp996
I730
aa(lp997
aa(lp998
V76561198348984272
p999
aI5
a(lp1000
I12750
aI730
aI252490
aa(lp1001
aa(lp1002
V76561198082979067
p1003
aI1
a(lp1004
I730
aa(lp1005
aa(lp1006
V76561198184561131
p1007
aI6
a(lp1008
I550
aI295110
aI433850
aa(lp1009
aa(lp1010
V76561198387191638
p1011
aI2
a(lp1012
I433850
aa(lp1013
aa(lp1014
V76561198489453739
p1015
aI12
a(lp1016
I730
aI218230
aI230410
aI287700
aI272510
aI234140
aa(lp1017
aa(lp1018
V76561198302790429
p1019
aI10
a(lp1020
I730
aI202990
aI212910
aI321040
aI444090
aa(lp1021
aa(lp1022
V76561198377632771
p1023
aI2
a(lp1024
I433850
aa(lp1025
aa(lp1026
V76561198305376909
p1027
aI7
a(lp1028
I730
aa(lp1029
aa(lp1030
V76561198346382146
p1031
aI0
a(lp1032
ag1029
aa(lp1033
V76561198724382720
p1034
aI2
a(lp1035
I433850
aa(lp1036
aa(lp1037
V76561198325813310
p1038
aI4
a(lp1039
I386360
aI444090
aa(lp1040
aa(lp1041
V76561198368548504
p1042
aI2
a(lp1043
I730
aa(lp1044
aa(lp1045
V76561198306431691
p1046
aI1
a(lp1047
I730
aa(lp1048
aa(lp1049
V76561198382653331
p1050
aI2
a(lp1051
I730
aa(lp1052
aa(lp1053
V76561198377671053
p1054
aI1
a(lp1055
I730
aa(lp1056
aa(lp1057
V76561198346556261
p1058
aI5
a(lp1059
I730
aI444090
aa(lp1060
aa(lp1061
V76561198271182175
p1062
aI47
a(lp1063
I212800
aI230410
aI252950
aI249870
aI312990
aI316010
aI730
aI332070
aI386360
aI291550
aI389570
aI391460
aI444090
aI466910
aI493810
aa(lp1064
aa(lp1065
V76561198293662569
p1066
aI3
a(lp1067
I730
aa(lp1068
aa(lp1069
V76561198353158439
p1070
aI7
a(lp1071
I730
aI513650
aa(lp1072
aa(lp1073
V76561198372587704
p1074
aI2
a(lp1075
I433850
aa(lp1076
aa(lp1077
V76561198559553935
p1078
aI1
a(lp1079
I730
aa(lp1080
aa(lp1081
V76561198383525917
p1082
aI2
a(lp1083
I433850
aa(lp1084
aa(lp1085
V76561198368411535
p1086
aI2
a(lp1087
I433850
aa(lp1088
aa(lp1089
V76561198196608739
p1090
aI0
a(lp1091
ag1088
aa(lp1092
V76561198069787661
p1093
aI43
a(lp1094
I10
aI240
aI730
aI200170
aI108600
aI310950
aa(lp1095
aa(lp1096
V76561198371635668
p1097
aI16
a(lp1098
I304930
aI730
aI444090
aI588430
aa(lp1099
aa(lp1100
V76561198308901113
p1101
aI5
a(lp1102
I730
aI301520
aa(lp1103
aa(lp1104
V76561198266783875
p1105
aI29
a(lp1106
I204180
aI11020
aI236390
aI252950
aI271590
aI279720
aI297020
aI351030
aI304050
aI321040
aI730
aI339610
aI353550
aI322330
aI391260
aI444090
aI273350
aI541180
aI568810
aI581620
aI506540
aa(lp1107
I570
aaa(lp1108
V76561198387023774
p1109
aI2
a(lp1110
I433850
aa(lp1111
aa(lp1112
V76561198381435051
p1113
aI1
a(lp1114
I730
aa(lp1115
aa(lp1116
V76561198087921312
p1117
aI14
a(lp1118
I322330
aI381210
aI273350
aI493340
aI578080
aa(lp1119
I440
aI570
aaa(lp1120
V76561198366522579
p1121
aI3
a(lp1122
I218620
aI555570
aa(lp1123
I440
aaa(lp1124
V76561198376025847
p1125
aI0
a(lp1126
ag1123
aa(lp1127
V76561198310994126
p1128
aI2
a(lp1129
a(lp1130
I570
aaa(lp1131
V76561198255211302
p1132
aI3
a(lp1133
I301520
aI730
aI380600
aa(lp1134
aa(lp1135
V76561198368808984
p1136
aI1
a(lp1137
I730
aa(lp1138
aa(lp1139
V76561198382471500
p1140
aI3
a(lp1141
I433850
aa(lp1142
aa(lp1143
V76561198379470814
p1144
aI5
a(lp1145
I730
aa(lp1146
aa(lp1147
V76561198255159143
p1148
aI2
a(lp1149
I730
aa(lp1150
aa(lp1151
V76561198298663792
p1152
aI12
a(lp1153
I282660
aI730
aI444090
aa(lp1154
aa(lp1155
V76561198387844247
p1156
aI2
a(lp1157
I433850
aa(lp1158
aa(lp1159
V76561198187658361
p1160
aI4
a(lp1161
I730
aa(lp1162
aa(lp1163
V76561198095828357
p1164
aI0
a(lp1165
ag1162
aa(lp1166
V76561198095892739
p1167
aI76
a(lp1168
I4000
aI2990
aI31280
aI620
aI33440
aI204360
aI202970
aI202990
aI212910
aI11020
aI99900
aI102700
aI109400
aI113400
aI200210
aI230410
aI236390
aI246280
aI224540
aI252950
aI209170
aI249870
aI257750
aI263760
aI265930
aI271590
aI274190
aI284160
aI301520
aI304930
aI242640
aI730
aI209660
aI346900
aI307780
aI363970
aI291550
aI391460
aI311210
aI431240
aI244930
aI264120
aI444640
aa(lp1169
I440
aaa(lp1170
V76561198153197895
p1171
aI0
a(lp1172
ag1169
aa(lp1173
V76561198381006314
p1174
aI2
a(lp1175
I433850
aa(lp1176
aa(lp1177
V76561198384557953
p1178
aI2
a(lp1179
I252950
aI730
aa(lp1180
aa(lp1181
V76561198305095909
p1182
aI2
a(lp1183
I730
aI431960
aa(lp1184
aa(lp1185
V76561198375676686
p1186
aI28
a(lp1187
I433850
aa(lp1188
aa(lp1189
V76561198150733460
p1190
aI11
a(lp1191
I49520
aI221100
aI271590
aI304930
aI252490
aI433850
aa(lp1192
I570
aaa(lp1193
V76561198092609748
p1194
aI106
a(lp1195
I4000
aI70100
aI70000
aI20920
aI47830
aI107100
aI72850
aI209080
aI204300
aI49520
aI205100
aI202970
aI202990
aI212910
aI223470
aI258700
aI223710
aI216150
aI224260
aI204080
aI216250
aI237110
aI218620
aI234670
aI263980
aI264140
aI108600
aI269490
aI550
aI271590
aI222880
aI285010
aI351030
aI293180
aI294040
aI296240
aI304050
aI304930
aI215080
aI327090
aI327680
aI730
aI340820
aI344750
aI368800
aI371570
aI322330
aI382120
aI388870
aI306040
aI314020
aI355150
aI392050
aI400250
aI407750
aI280790
aI444090
aI447850
aI455710
aI457930
aI457940
aI397620
aI505440
aI447880
aI462370
aI516700
aI467370
aI473580
aI473620
aI473630
aI473640
aI473650
aI486340
aI491250
aI504490
aI431270
aI522570
aI535760
aI542340
aI547960
aI554530
aI489520
aI578310
aI583490
aI589390
aa(lp1196
I440
aI570
aaa(lp1197
V76561198371134289
p1198
aI0
a(lp1199
ag1196
aa(lp1200
V76561198380555563
p1201
aI2
a(lp1202
I433850
aa(lp1203
aa(lp1204
V76561198371467382
p1205
aI1
a(lp1206
I730
aa(lp1207
aa(lp1208
V76561198100985767
p1209
aI4
a(lp1210
I433850
aa(lp1211
aa(lp1212
V76561198382210985
p1213
aI2
a(lp1214
I730
aa(lp1215
aa(lp1216
V76561198187152559
p1217
aI1
a(lp1218
I730
aa(lp1219
aa(lp1220
V76561198138648329
p1221
aI1
a(lp1222
I730
aa(lp1223
aa(lp1224
V76561198145636068
p1225
aI252
a(lp1226
I550
aI8930
aI47870
aI48190
aI201870
aI730
aI204360
aI219640
aI221040
aI222940
aI261490
aI264220
aI265930
aI12340
aI273770
aI275490
aI48700
aI284750
aI284890
aI284950
aI351030
aI285070
aI285130
aI292370
aI292570
aI238460
aI299260
aI304930
aI308000
aI313140
aI315060
aI321150
aI307690
aI344130
aI348020
aI350810
aI355920
aI292030
aI374830
aI381210
aI384680
aI385490
aI397980
aI400370
aI360170
aI407680
aI416350
aI307670
aI105450
aI221380
aI359550
aI427980
aI436300
aI365590
aI448260
aI454690
aI458480
aI459020
aI461690
aI467560
aI485310
aI485410
aI512470
aI534500
aI604450
aa(lp1227
I570
aaa(lp1228
V76561198372816145
p1229
aI4
a(lp1230
I230410
aI433850
aa(lp1231
aa(lp1232
V76561198027687222
p1233
aI22
a(lp1234
I240
aI300
aI10180
aI10190
aI42700
aI42710
aI42680
aI42690
aI730
aa(lp1235
I440
aI570
aaa(lp1236
V76561198349435858
p1237
aI11
a(lp1238
I271590
aI730
aI346110
aa(lp1239
aa(lp1240
V76561198371865896
p1241
aI1
a(lp1242
I730
aa(lp1243
aa(lp1244
V76561198381054326
p1245
aI1
a(lp1246
I730
aa(lp1247
aa(lp1248
V76561198324770280
p1249
aI3
a(lp1250
I730
aI510630
aI555570
aa(lp1251
aa(lp1252
V76561198559379574
p1253
aI5
a(lp1254
I730
aa(lp1255
aa(lp1256
V76561198301395111
p1257
aI10
a(lp1258
a(lp1259
I570
aaa(lp1260
V76561198300199419
p1261
aI28
a(lp1262
I730
aI407250
aI459510
aa(lp1263
aa(lp1264
V76561198376830596
p1265
aI2
a(lp1266
a(lp1267
I570
aaa(lp1268
V76561198188568770
p1269
aI4
a(lp1270
I433850
aa(lp1271
aa(lp1272
V76561198387496944
p1273
aI3
a(lp1274
I433850
aa(lp1275
aa(lp1276
V76561198262687070
p1277
aI13
a(lp1278
I200710
aI236390
aI48700
aI304050
aI444090
aI542590
aa(lp1279
I440
aI570
aaa(lp1280
V76561198376361023
p1281
aI6
a(lp1282
I730
aI252490
aa(lp1283
aa(lp1284
V76561198376399332
p1285
aI2
a(lp1286
I433850
aa(lp1287
aa(lp1288
V76561198297572857
p1289
aI5
a(lp1290
I730
aI340540
aa(lp1291
aa(lp1292
V76561198301299914
p1293
aI5
a(lp1294
I730
aI444090
aa(lp1295
aa(lp1296
V76561198263042374
p1297
aI18
a(lp1298
I248570
aI282660
aI304930
aI730
aI349700
aI397100
aI402570
aI324810
aa(lp1299
aa(lp1300
V76561198351064309
p1301
aI33
a(lp1302
I251570
aI730
aI346110
aI433850
aa(lp1303
aa(lp1304
V76561198369509556
p1305
aI12
a(lp1306
I730
aI506540
aa(lp1307
I570
aaa(lp1308
V76561198380993454
p1309
aI14
a(lp1310
I730
aI386360
aI444090
aI485610
aa(lp1311
aa(lp1312
V76561198169270936
p1313
aI8
a(lp1314
I730
aI9480
aa(lp1315
aa(lp1316
V76561198183743965
p1317
aI12
a(lp1318
I200210
aI323370
aI730
aI291550
aI236110
aI476460
aa(lp1319
I440
aaa(lp1320
V76561198260452585
p1321
aI18
a(lp1322
I730
aI406090
aI397620
aI460660
aI505440
aI473580
aI485310
aI522570
aI535760
aI547960
aI554530
aI585720
aa(lp1323
aa(lp1324
V76561198320161493
p1325
aI1
a(lp1326
I730
aa(lp1327
aa(lp1328
V76561198330455575
p1329
aI2
a(lp1330
I730
aa(lp1331
aa(lp1332
V76561198307682022
p1333
aI6
a(lp1334
I321040
aI730
aI444090
aa(lp1335
aa(lp1336
V76561198169256275
p1337
aI4
a(lp1338
I730
aI380600
aa(lp1339
I440
aaa(lp1340
V76561198380170780
p1341
aI2
a(lp1342
I433850
aa(lp1343
aa(lp1344
V76561198355010238
p1345
aI0
a(lp1346
ag1343
aa(lp1347
V76561198369437509
p1348
aI2
a(lp1349
I730
aa(lp1350
aa(lp1351
V76561198366539799
p1352
aI4
a(lp1353
I433850
aI418370
aa(lp1354
aa(lp1355
V76561198267026651
p1356
aI16
a(lp1357
I304930
aI730
aI255710
aI280790
aI234670
aI349040
aa(lp1358
aa(lp1359
V76561198175039173
p1360
aI5
a(lp1361
I301520
aI730
aa(lp1362
aa(lp1363
V76561198104531024
p1364
aI3
a(lp1365
I730
aI227300
aa(lp1366
aa(lp1367
V76561198336234728
p1368
aI10
a(lp1369
I730
aI444090
aa(lp1370
I570
aaa(lp1371
V76561198346529611
p1372
aI14
a(lp1373
I550
aI230410
aI236390
aI304930
aI730
aI444200
aa(lp1374
I570
aaa(lp1375
V76561198134328532
p1376
aI4
a(lp1377
I433850
aa(lp1378
aa(lp1379
V76561198113579293
p1380
aI22
a(lp1381
I10
aI4000
aI104900
aI227300
aI550
aI304930
aI730
aI380600
aI466910
aa(lp1382
aa(lp1383
V76561198374059467
p1384
aI11
a(lp1385
I286940
aI730
aa(lp1386
aa(lp1387
V76561198377249383
p1388
aI1
a(lp1389
I730
aa(lp1390
aa(lp1391
V76561198384082039
p1392
aI2
a(lp1393
I433850
aa(lp1394
aa(lp1395
V76561198301983187
p1396
aI11
a(lp1397
I10090
aI204360
aI242760
aI386360
aI311210
aI431240
aI578080
aa(lp1398
aa(lp1399
V76561198169184938
p1400
aI9
a(lp1401
I730
aI444090
aa(lp1402
I570
aaa(lp1403
V76561198273140279
p1404
aI10
a(lp1405
I10
aI730
aI386360
aa(lp1406
aa(lp1407
V76561198340064149
p1408
aI35
a(lp1409
I105600
aI223470
aI214510
aI209870
aI242760
aI252950
aI225840
aI304050
aI304930
aI312990
aI730
aI291550
aI433850
aa(lp1410
aa(lp1411
V76561198254153482
p1412
aI0
a(lp1413
ag1410
aa(lp1414
V76561198217789405
p1415
aI22
a(lp1416
I219640
aI230410
aI271590
aI271640
aI55230
aI206420
aI730
aI252490
aI319630
aI386360
aI389300
aI399790
aI443810
aI474960
aI533300
aa(lp1417
aa(lp1418
V76561198386569386
p1419
aI2
a(lp1420
I730
aa(lp1421
aa(lp1422
V76561198356212995
p1423
aI67
a(lp1424
I304930
aI730
aI578310
aI605500
aI607200
aa(lp1425
I570
aaa(lp1426
V76561198378168635
p1427
aI1
a(lp1428
I730
aa(lp1429
aa(lp1430
V76561198378210463
p1431
aI0
a(lp1432
ag1429
aa(lp1433
V76561198363431411
p1434
aI2
a(lp1435
I730
aa(lp1436
aa(lp1437
V76561198354423401
p1438
aI0
a(lp1439
ag1436
aa(lp1440
V76561198353897895
p1441
aI11
a(lp1442
I230410
aI730
aI322330
aI444090
aI506540
aa(lp1443
aa(lp1444
V76561198380142130
p1445
aI3
a(lp1446
I730
aa(lp1447
aa(lp1448
V76561198296627874
p1449
aI2
a(lp1450
I730
aa(lp1451
aa(lp1452
V76561198373488465
p1453
aI11
a(lp1454
I201790
aI730
aI359550
aa(lp1455
aa(lp1456
V76561198383572656
p1457
aI1
a(lp1458
I730
aa(lp1459
aa(lp1460
V76561198337803256
p1461
aI0
a(lp1462
ag1459
aa(lp1463
V76561198361318066
p1464
aI5
a(lp1465
I730
aa(lp1466
aa(lp1467
V76561198261827592
p1468
aI16
a(lp1469
I4000
aI105600
aI227300
aI730
aI335240
aI466910
aa(lp1470
aa(lp1471
V76561198335009347
p1472
aI9
a(lp1473
I730
aI223470
aI22300
aI444090
aI588430
aa(lp1474
aa(lp1475
V76561198136572075
p1476
aI4
a(lp1477
I433850
aI439700
aa(lp1478
aa(lp1479
V76561198129666328
p1480
aI12
a(lp1481
I99900
aI273110
aI301520
aI304930
aI730
aI403040
aa(lp1482
I570
aaa(lp1483
V76561198279126429
p1484
aI14
a(lp1485
I730
aI10
aI100
aI466910
aI22100
aI48700
aI48720
aI334230
aI466730
aa(lp1486
aa(lp1487
V76561198577704640
p1488
aI7
a(lp1489
I271590
aI351290
aI359550
aI433850
aa(lp1490
aa(lp1491
V76561198334711653
p1492
aI31
a(lp1493
I10
aI24240
aI206210
aI281920
aI227560
aI304930
aI313830
aI730
aI340540
aI357290
aI385270
aI440760
aI444090
aI506540
aa(lp1494
I440
aI570
aaa(lp1495
V76561198382360816
p1496
aI10
a(lp1497
I202990
aI252950
aI730
aa(lp1498
aa(lp1499
V76561198384398728
p1500
aI1
a(lp1501
I730
aa(lp1502
aa(lp1503
V76561198387828913
p1504
aI1
a(lp1505
I730
aa(lp1506
aa(lp1507
V76561198382838440
p1508
aI4
a(lp1509
I730
aI431960
aa(lp1510
aa(lp1511
V76561198195369231
p1512
aI26
a(lp1513
I550
aI105600
aI222940
aI265300
aI222880
aI322500
aI730
aI339600
aI271590
aI322330
aI433850
aI504370
aa(lp1514
I570
aaa(lp1515
V76561198099608668
p1516
aI14
a(lp1517
I8930
aI291480
aI730
aI380600
aI393420
aa(lp1518
aa(lp1519
V76561198313083602
p1520
aI9
a(lp1521
I242760
aI304930
aI730
aI280790
aI433800
aa(lp1522
aa(lp1523
V76561198379057025
p1524
aI3
a(lp1525
I730
aa(lp1526
aa(lp1527
V76561198282254101
p1528
aI9
a(lp1529
I252950
aI730
aI444200
aa(lp1530
aa(lp1531
V76561198376376845
p1532
aI8
a(lp1533
I252950
aI730
aa(lp1534
aa(lp1535
V76561198291456399
p1536
aI7
a(lp1537
I227300
aI730
aI403040
aI433850
aa(lp1538
aa(lp1539
V76561198109118468
p1540
aI3
a(lp1541
I433850
aa(lp1542
aa(lp1543
V76561198317990729
p1544
aI1
a(lp1545
I730
aa(lp1546
aa(lp1547
V76561198316032731
p1548
aI0
a(lp1549
ag1546
aa(lp1550
V76561198188056774
p1551
aI1
a(lp1552
I730
aa(lp1553
aa(lp1554
V76561198381985401
p1555
aI14
a(lp1556
I227300
aI730
aI427730
aI444090
aa(lp1557
aa(lp1558
V76561198206684031
p1559
aI64
a(lp1560
I91310
aI227300
aI244210
aI252490
aI263280
aI8930
aI271590
aI282660
aI321040
aI730
aI433850
aI447020
aa(lp1561
aa(lp1562
V76561198379966602
p1563
aI6
a(lp1564
I730
aa(lp1565
aa(lp1566
V76561198351849430
p1567
aI1
a(lp1568
I730
aa(lp1569
aa(lp1570
V76561198356324115
p1571
aI3
a(lp1572
I730
aa(lp1573
aa(lp1574
V76561198354568964
p1575
aI2
a(lp1576
I730
aa(lp1577
aa(lp1578
V76561198367084749
p1579
aI8
a(lp1580
I304930
aI730
aI280790
aI444090
aI555570
aa(lp1581
aa(lp1582
V76561198381831445
p1583
aI2
a(lp1584
I433850
aa(lp1585
aa(lp1586
V76561198204818165
p1587
aI35
a(lp1588
I4000
aI620
aI224260
aI246280
aI218620
aI252490
aI252950
aI238460
aI301520
aI302830
aI304930
aI17570
aI730
aI346110
aI389570
aI393420
aI444090
aI555570
aa(lp1589
I440
aaa(lp1590
V76561198372232164
p1591
aI0
a(lp1592
ag1589
aa(lp1593
V76561198381831449
p1594
aI2
a(lp1595
I433850
aa(lp1596
aa(lp1597
V76561198379565704
p1598
aI2
a(lp1599
I433850
aa(lp1600
aa(lp1601
V76561198373995130
p1602
aI20
a(lp1603
I273110
aI304930
aI333930
aI391460
aa(lp1604
aa(lp1605
V76561198196471142
p1606
aI5
a(lp1607
I273110
aI227940
aI730
aa(lp1608
I440
aaa(lp1609
V76561198287303175
p1610
aI12
a(lp1611
I299740
aI301520
aI252490
aI344760
aI387990
aI433850
aI439700
aI107410
aI534500
aI578080
aa(lp1612
aa(lp1613
V76561198129727934
p1614
aI2
a(lp1615
I730
aa(lp1616
aa(lp1617
V76561198029388581
p1618
aI0
a(lp1619
ag1616
aa(lp1620
V76561198188280234
p1621
aI10
a(lp1622
I730
aI216250
aI219740
aI242760
aI311210
aI444200
aa(lp1623
I440
aaa(lp1624
V76561198222140512
p1625
aI59
a(lp1626
I220240
aI227300
aI218620
aI235600
aI252490
aI227940
aI730
aI459510
aI479130
aa(lp1627
I570
aaa(lp1628
V76561198212612749
p1629
aI1
a(lp1630
I730
aa(lp1631
aa(lp1632
V76561198292514860
p1633
aI70
a(lp1634
I47870
aI730
aI226700
aI224260
aI222880
aI250400
aI224600
aI291480
aI227940
aI203160
aI333930
aI337950
aI351290
aI355840
aI407530
aI431960
aI433850
aI439700
aI578080
aI506540
aa(lp1635
I570
aaa(lp1636
V76561198137308168
p1637
aI28
a(lp1638
I4000
aI50130
aI55230
aI201700
aI227300
aI11020
aI236390
aI253710
aI218620
aI227940
aI730
aI346900
aI444090
aI208140
aa(lp1639
I440
aI570
aaa(lp1640
V76561198273482801
p1641
aI2
a(lp1642
I730
aa(lp1643
aa(lp1644
V76561198323340809
p1645
aI7
a(lp1646
I730
aI304930
aI444090
aa(lp1647
I440
aaa(lp1648
V76561198379511176
p1649
aI1
a(lp1650
I730
aa(lp1651
aa(lp1652
V76561198251922342
p1653
aI3
a(lp1654
I730
aa(lp1655
aa(lp1656
V76561198237417440
p1657
aI5
a(lp1658
I730
aI433850
aa(lp1659
I570
aaa(lp1660
V76561198372360634
p1661
aI0
a(lp1662
ag1659
aa(lp1663
V76561198285040023
p1664
aI6
a(lp1665
a(lp1666
I570
aaa(lp1667
V76561198384456001
p1668
aI2
a(lp1669
I730
aa(lp1670
aa(lp1671
V76561198263460113
p1672
aI12
a(lp1673
I227300
aI304930
aI730
aI407250
aI444090
aI459510
aI541180
aa(lp1674
aa(lp1675
V76561198387554296
p1676
aI1
a(lp1677
I730
aa(lp1678
aa(lp1679
V76561198373798304
p1680
aI4
a(lp1681
I227300
aI730
aI431240
aI438040
aa(lp1682
aa(lp1683
V76561198310126906
p1684
aI10
a(lp1685
I730
aI387990
aI444090
aI375600
aa(lp1686
I440
aaa(lp1687
V76561198377473648
p1688
aI3
a(lp1689
I730
aa(lp1690
aa(lp1691
V76561198126810269
p1692
aI986
a(lp1693
I550
aI70000
aI91200
aI11280
aI46500
aI96100
aI201570
aI42170
aI209330
aI203630
aI409710
aI204180
aI214360
aI730
aI200510
aI218640
aI7510
aI211400
aI57690
aI1930
aI224420
aI220090
aI208090
aI230410
aI272350
aI252150
aI224220
aI234940
aI239450
aI234390
aI244590
aI225280
aI251710
aI252170
aI253650
aI253900
aI253980
aI234000
aI238910
aI257830
aI257890
aI258200
aI45500
aI259510
aI212480
aI262150
aI262280
aI263060
aI264300
aI215530
aI265300
aI267920
aI267980
aI268240
aI271640
aI271860
aI274310
aI275470
aI275490
aI278460
aI222900
aI279720
aI283230
aI283290
aI283390
aI283660
aI283960
aI284730
aI284850
aI284930
aI284950
aI351030
aI285010
aI285070
aI285090
aI285840
aI286120
aI286360
aI287120
aI231430
aI291550
aI292370
aI292380
aI292410
aI292570
aI292620
aI292630
aI293180
aI294020
aI294230
aI295730
aI295930
aI297020
aI35450
aI236830
aI299260
aI299460
aI301200
aI301750
aI303390
aI303410
aI304930
aI4570
aI306410
aI224600
aI307070
aI307170
aI307350
aI308000
aI291480
aI313650
aI313020
aI314250
aI314700
aI277950
aI315060
aI248470
aI311250
aI318100
aI318430
aI319830
aI320150
aI321040
aI321260
aI321400
aI321920
aI321950
aI326180
aI328680
aI24240
aI328940
aI329380
aI329950
aI330350
aI328600
aI332480
aI218620
aI333930
aI334070
aI335430
aI335700
aI336200
aI274620
aI317440
aI338050
aI338710
aI339290
aI339470
aI340300
aI340310
aI340320
aI341060
aI344040
aI344130
aI344300
aI344750
aI345120
aI343360
aI347560
aI348540
aI349580
aI350010
aI350810
aI331710
aI354850
aI368900
aI354860
aI356200
aI357280
aI357650
aI357780
aI357900
aI232090
aI360890
aI360970
aI361190
aI363620
aI364270
aI364690
aI397620
aI370090
aI370100
aI343100
aI371100
aI371570
aI373110
aI374140
aI375460
aI375620
aI377570
aI378100
aI382120
aI382240
aI382300
aI382490
aI383030
aI383930
aI384150
aI252950
aI385080
aI385200
aI395980
aI410590
aI432150
aI294040
aI385830
aI386360
aI388870
aI389810
aI391260
aI391740
aI253030
aI392050
aI392870
aI394680
aI395170
aI395380
aI416270
aI431270
aI398070
aI398680
aI398710
aI399580
aI236110
aI399790
aI407740
aI407750
aI457930
aI457940
aI473580
aI473620
aI473630
aI473640
aI473650
aI486340
aI491250
aI516230
aI400240
aI400250
aI403740
aI404700
aI15700
aI406090
aI299360
aI412600
aI415030
aI418440
aI420740
aI421040
aI422100
aI422250
aI424830
aI428430
aI429470
aI429520
aI460660
aI431710
aI431860
aI433790
aI434010
aI434250
aI434610
aI434820
aI438010
aI438030
aI439250
aI439910
aI441870
aI34270
aI444090
aI444220
aI410560
aI444480
aI446050
aI446640
aI447850
aI447880
aI462370
aI516700
aI447890
aI448660
aI449220
aI449630
aI449680
aI449940
aI444880
aI454180
aI454200
aI457490
aI457710
aI459820
aI505440
aI461570
aI461840
aI462960
aI463220
aI463520
aI463620
aI463710
aI466730
aI467370
aI467950
aI468490
aI473140
aI473510
aI473670
aI476480
aI477290
aI485220
aI485500
aI485870
aI486820
aI487700
aI488200
aI489220
aI489470
aI491080
aI498660
aI501720
aI503820
aI504490
aI505210
aI506670
aI508180
aI509220
aI518800
aI522570
aI526790
aI527770
aI528660
aI528770
aI533150
aI533300
aI533620
aI534500
aI535760
aI537360
aI539440
aI540900
aI541370
aI489520
aI546450
aI529760
aI547470
aI547960
aI551110
aI551680
aI552780
aI554530
aI555710
aI556130
aI556280
aI556870
aI558620
aI558810
aI559500
aI252850
aI562240
aI562270
aI562650
aI562660
aI565110
aI565340
aI567000
aI567280
aI567290
aI568650
aI568720
aI569610
aI570500
aI571020
aI571910
aI575490
aI576440
aI463150
aI581620
aI583490
aI586380
aI588430
aI595340
aI595440
aI204300
aa(lp1694
I440
aI570
aaa(lp1695
V76561198304744636
p1696
aI22
a(lp1697
I4000
aI550
aI304930
aI321400
aI274940
aI730
aI381210
aI252950
aI420290
aI359550
aI444090
aI541180
aa(lp1698
I440
aI570
aaa(lp1699
V76561198361932296
p1700
aI12
a(lp1701
I224260
aI730
aI322330
aa(lp1702
aa(lp1703
V76561198372563778
p1704
aI2
a(lp1705
I433850
aa(lp1706
aa(lp1707
V76561198354570908
p1708
aI37
a(lp1709
I10
aI10190
aI730
aI311210
aI349040
aI431960
aI433850
aI444090
aI212740
aa(lp1710
aa(lp1711
V76561198141626044
p1712
aI63
a(lp1713
I10
aI550
aI730
aI11020
aI17080
aI109400
aI113400
aI211500
aI236390
aI263500
aI272350
aI265630
aI224260
aI273110
aI296470
aI298240
aI304050
aI304930
aI227700
aI227940
aI321040
aI221380
aI17570
aI334230
aI250900
aI340150
aI346900
aI298630
aI339280
aI361280
aI363970
aI386360
aI291550
aI236110
aI280790
aI427270
aI424280
aI433850
aI438040
aI444090
aI444640
aI582500
aa(lp1714
I440
aI570
aaa(lp1715
V76561198378691083
p1716
aI1
a(lp1717
I730
aa(lp1718
aa(lp1719
V76561198387775792
p1720
aI0
a(lp1721
ag1718
aa(lp1722
V76561198233784204
p1723
aI2
a(lp1724
I730
aa(lp1725
aa(lp1726
V76561198357358567
p1727
aI9
a(lp1728
I236390
aI265630
aI730
aI482120
aa(lp1729
aa(lp1730
V76561198376488639
p1731
aI1
a(lp1732
I730
aa(lp1733
aa(lp1734
V76561198307517950
p1735
aI2
a(lp1736
I730
aa(lp1737
aa(lp1738
V76561198274604284
p1739
aI3
a(lp1740
I730
aI550900
aa(lp1741
aa(lp1742
V76561198355141566
p1743
aI1
a(lp1744
I730
aa(lp1745
aa(lp1746
V76561198376736819
p1747
aI2
a(lp1748
I730
aa(lp1749
aa(lp1750
V76561198171194949
p1751
aI0
a(lp1752
ag1749
aa(lp1753
V76561198382116472
p1754
aI6
a(lp1755
I304930
aI730
aI212740
aa(lp1756
aa(lp1757
V76561198314329715
p1758
aI0
a(lp1759
ag1756
aa(lp1760
V76561198378550868
p1761
aI1
a(lp1762
I730
aa(lp1763
aa(lp1764
V76561198123432434
p1765
aI23
a(lp1766
I4000
aI243870
aI237310
aI239660
aI242720
aI304050
aI304270
aI304930
aI291480
aI268420
aI730
aI333930
aI339610
aI537180
aI568810
aa(lp1767
I570
aaa(lp1768
V76561198374704628
p1769
aI4
a(lp1770
I730
aI433850
aI578080
aa(lp1771
aa(lp1772
V76561198276622772
p1773
aI32
a(lp1774
I295110
aI433850
aI439700
aI730
aI578080
aa(lp1775
aa(lp1776
V76561198356218033
p1777
aI1
a(lp1778
I730
aa(lp1779
aa(lp1780
V76561198082274422
p1781
aI225
a(lp1782
I4000
aI20500
aI105600
aI2400
aI201790
aI215280
aI49520
aI221260
aI99900
aI113400
aI113420
aI200210
aI206210
aI207230
aI213650
aI218230
aI230410
aI258700
aI214420
aI248570
aI250420
aI251670
aI206500
aI239220
aI246280
aI263540
aI233450
aI228960
aI213850
aI207140
aI248820
aI218620
aI239820
aI250900
aI252950
aI107410
aI247000
aI238430
aI263980
aI264140
aI264200
aI264710
aI211820
aI274920
aI275850
aI225840
aI286340
aI226100
aI290730
aI290890
aI219740
aI322330
aI293260
aI293540
aI301520
aI304050
aI304930
aI241240
aI9900
aI215080
aI9880
aI313120
aI313160
aI268420
aI255070
aI315430
aI315460
aI317470
aI261180
aI321480
aI258970
aI329110
aI282070
aI335150
aI335330
aI339440
aI339600
aI340810
aI323470
aI346420
aI346900
aI347830
aI266510
aI353270
aI255710
aI356310
aI361420
aI362070
aI363600
aI363970
aI369200
aI371570
aI374040
aI380360
aI382490
aI383080
aI385770
aI386360
aI387340
aI291550
aI388490
aI389870
aI389570
aI391730
aI402840
aI299360
aI55230
aI206420
aI301910
aI409510
aI236110
aI410850
aI411830
aI413150
aI413410
aI280790
aI414290
aI415480
aI421040
aI314000
aI427270
aI431960
aI433340
aI438490
aI460870
aI439190
aI440900
aI205230
aI444090
aI459160
aI332310
aI495910
aI496810
aI273350
aI537180
aI402560
aa(lp1783
I440
aaa(lp1784
V76561198371076673
p1785
aI0
a(lp1786
ag1783
aa(lp1787
V76561198296819173
p1788
aI62
a(lp1789
I105600
aI11020
aI17080
aI200210
aI208090
aI218230
aI230410
aI209870
aI262410
aI224260
aI218620
aI286940
aI291410
aI301520
aI304050
aI304930
aI224600
aI291480
aI227940
aI730
aI333930
aI336510
aI346900
aI355180
aI363970
aI369200
aI376570
aI381560
aI383080
aI291550
aI391460
aI299360
aI236110
aI414730
aI438040
aI444090
aI452230
aI459820
aI482920
aI442080
aI513650
aI524970
aI547680
aI436520
aI212740
aI588430
aI591960
aa(lp1790
I440
aaa(lp1791
V76561198202943911
p1792
aI0
a(lp1793
ag1790
aa(lp1794
V76561198291955194
p1795
aI10
a(lp1796
I105600
aI252950
aI304930
aI730
aI444090
aa(lp1797
I440
aaa(lp1798
V76561198345272348
p1799
aI22
a(lp1800
I261430
aI304930
aI730
aI459510
aI488440
aI534500
aI555570
aa(lp1801
aa(lp1802
V76561198151553639
p1803
aI13
a(lp1804
I230410
aI321040
aI282070
aI730
aI433850
aI295110
aI9480
aa(lp1805
aa(lp1806
V76561198362343041
p1807
aI0
a(lp1808
ag1805
aa(lp1809
V76561198253571243
p1810
aI50
a(lp1811
I4000
aI104200
aI96100
aI204180
aI219640
aI206210
aI230410
aI236390
aI218620
aI263980
aI271590
aI292630
aI238460
aI301520
aI304050
aI304930
aI307350
aI322170
aI730
aI348020
aI349700
aI403570
aI416080
aI239140
aI444090
aa(lp1812
I440
aI570
aaa(lp1813
V76561198085457037
p1814
aI8
a(lp1815
I108710
aI730
aI322330
aI433850
aa(lp1816
I570
aaa(lp1817
V76561198139555446
p1818
aI4
a(lp1819
I730
aI578080
aa(lp1820
I570
aaa(lp1821
V76561198382761871
p1822
aI2
a(lp1823
I433850
aa(lp1824
aa(lp1825
V76561198378080214
p1826
aI1
a(lp1827
I730
aa(lp1828
aa(lp1829
V76561198373155287
p1830
aI2
a(lp1831
I730
aa(lp1832
aa(lp1833
V76561198375570176
p1834
aI1
a(lp1835
I730
aa(lp1836
aa(lp1837
V76561198381837938
p1838
aI2
a(lp1839
I433850
aa(lp1840
aa(lp1841
V76561198234087584
p1842
aI3
a(lp1843
I730
aa(lp1844
aa(lp1845
V76561198378357140
p1846
aI1
a(lp1847
I730
aa(lp1848
aa(lp1849
V76561198366145045
p1850
aI3
a(lp1851
I433850
aa(lp1852
aa(lp1853
V76561198242243628
p1854
aI76
a(lp1855
I4000
aI201700
aI211500
aI265630
aI224260
aI233720
aI271590
aI304050
aI304930
aI313160
aI730
aI333930
aI337320
aI346900
aI380600
aI280790
aI427730
aI434570
aI244930
aI444090
aI378370
aI516750
aI588430
aa(lp1856
I440
aaa(lp1857
V76561198385801708
p1858
aI1
a(lp1859
I730
aa(lp1860
aa(lp1861
V76561198374901200
p1862
aI2
a(lp1863
I433850
aa(lp1864
aa(lp1865
V76561198347891520
p1866
aI14
a(lp1867
I223470
aI227300
aI242760
aI730
aI291550
aI433850
aa(lp1868
I440
aaa(lp1869
V76561198331643726
p1870
aI0
a(lp1871
ag1868
aa(lp1872
V76561198149994245
p1873
aI26
a(lp1874
I105600
aI301520
aI304050
aI304930
aI730
aI241930
aI355840
aI291550
aI234140
aI393420
aI208650
aI438640
aI444090
aI273350
aI555570
aa(lp1875
I440
aI570
aaa(lp1876
V76561198341181352
p1877
aI47
a(lp1878
I10500
aI301520
aI730
aI335330
aI351290
aI355180
aI409510
aa(lp1879
aa(lp1880
V76561198358751383
p1881
aI5
a(lp1882
I730
aI291550
aa(lp1883
I440
aaa(lp1884
V76561198168648101
p1885
aI6
a(lp1886
I50300
aI10
aI730
aa(lp1887
aa(lp1888
V76561198204232157
p1889
aI56
a(lp1890
I730
aI444090
aI568810
aI578080
aI588430
aI506540
aa(lp1891
aa(lp1892
V76561198056481819
p1893
aI35
a(lp1894
I20
aI4000
aI3590
aI10180
aI10190
aI31280
aI400
aI620
aI113200
aI65800
aI209270
aI242760
aI213670
aI221100
aI227940
aI323850
aI730
aI359550
aI431960
aa(lp1895
I440
aaa(lp1896
V76561198383493803
p1897
aI2
a(lp1898
I433850
aa(lp1899
aa(lp1900
V76561198340560278
p1901
aI12
a(lp1902
I322170
aI252950
aI255710
aI304430
aa(lp1903
aa(lp1904
V76561198644976284
p1905
aI2
a(lp1906
I730
aI4000
aa(lp1907
aa(lp1908
V76561198198366593
p1909
aI38
a(lp1910
I2990
aI550
aI236390
aI238960
aI252490
aI260430
aI304930
aI730
aI365670
aI578080
aa(lp1911
I440
aI570
aaa(lp1912
V76561198377294029
p1913
aI1
a(lp1914
I730
aa(lp1915
aa(lp1916
V76561198376394206
p1917
aI52
a(lp1918
I730
aa(lp1919
I570
aaa(lp1920
V76561198353171519
p1921
aI1
a(lp1922
I730
aa(lp1923
aa(lp1924
V76561198346540562
p1925
aI1
a(lp1926
I730
aa(lp1927
aa(lp1928
V76561198148946110
p1929
aI29
a(lp1930
I12210
aI35130
aI105450
aI275490
aI316010
aI272470
aI24240
aI730
aI362930
aI34270
aa(lp1931
aa(lp1932
V76561198378057037
p1933
aI2
a(lp1934
I433850
aa(lp1935
aa(lp1936
V76561198373954719
p1937
aI28
a(lp1938
I433850
aa(lp1939
aa(lp1940
V76561198173923506
p1941
aI3
a(lp1942
I252490
aI433850
aa(lp1943
aa(lp1944
V76561198371143245
p1945
aI5
a(lp1946
I730
aI434570
aa(lp1947
aa(lp1948
V76561198378486925
p1949
aI0
a(lp1950
ag1947
aa(lp1951
V76561198174800443
p1952
aI10
a(lp1953
I271590
aI433850
aI295110
aI304390
aa(lp1954
I440
aI570
aaa(lp1955
V76561198357750514
p1956
aI10
a(lp1957
I302830
aI730
aI427730
aa(lp1958
aa(lp1959
V76561198151114648
p1960
aI6
a(lp1961
I252490
aI252950
aI291480
aI730
aa(lp1962
aa(lp1963
V76561198374820213
p1964
aI2
a(lp1965
I730
aa(lp1966
aa(lp1967
V76561197967874553
p1968
aI7
a(lp1969
a(lp1970
aa(lp1971
V76561198376763116
p1972
aI4
a(lp1973
I384300
aI433850
aa(lp1974
aa(lp1975
V76561198085613837
p1976
aI0
a(lp1977
ag1974
aa(lp1978
V76561198169864817
p1979
aI28
a(lp1980
I326350
aI730
aI444200
aa(lp1981
aa(lp1982
V76561198369157512
p1983
aI2
a(lp1984
I433850
aa(lp1985
aa(lp1986
V76561198379655784
p1987
aI2
a(lp1988
I730
aa(lp1989
aa(lp1990
V76561198064364579
p1991
aI48
a(lp1992
I34830
aI102700
aI236390
aI272350
aI265630
aI273110
aI302830
aI304930
aI227940
aI730
aI335240
aI346900
aI386360
aI291550
aI391460
aI299360
aI407120
aI407250
aI444090
aI359550
aI485610
aI444200
aI555570
aI436520
aI588430
aI506540
aa(lp1993
I440
aaa(lp1994
V76561198356257451
p1995
aI9
a(lp1996
I227940
aI730
aI444200
aa(lp1997
I440
aaa(lp1998
V76561198358538974
p1999
aI7
a(lp2000
I730
aI252490
aI459510
aa(lp2001
aa(lp2002
V76561198190945467
p2003
aI27
a(lp2004
I730
aa(lp2005
aa(lp2006
V76561198115814845
p2007
aI66
a(lp2008
I4000
aI17390
aI8190
aI72850
aI17080
aI99900
aI104700
aI109600
aI206210
aI212070
aI218230
aI236390
aI243870
aI214420
aI248570
aI271290
aI224260
aI237110
aI218620
aI219640
aI252950
aI550
aI222880
aI294160
aI301520
aI302830
aI304050
aI304930
aI222750
aI227700
aI227940
aI730
aI333930
aI349700
aI306130
aI365720
aI244050
aI291550
aI444090
aI444200
aa(lp2009
I440
aI570
aI630
aI259080
aaa(lp2010
V76561198347047880
p2011
aI3
a(lp2012
I730
aI550900
aa(lp2013
aa(lp2014
V76561198233707132
p2015
aI4
a(lp2016
I253710
aI730
aa(lp2017
aa(lp2018
V76561198371527701
p2019
aI2
a(lp2020
I433850
aa(lp2021
aa(lp2022
V76561198379257911
p2023
aI1
a(lp2024
I578080
aa(lp2025
aa(lp2026
V76561198374513611
p2027
aI2
a(lp2028
I433850
aa(lp2029
aa(lp2030
V76561198164137991
p2031
aI113
a(lp2032
I70
aI4000
aI220
aI280
aI12210
aI500
aI550
aI42680
aI201870
aI72850
aI204340
aI204100
aI223470
aI208480
aI220240
aI227300
aI230410
aI219740
aI322330
aI239030
aI218620
aI271590
aI239160
aI48700
aI291010
aI304930
aI238090
aI10150
aI115320
aI203140
aI730
aI335240
aI444090
aI485380
aI48000
aI550900
aa(lp2033
I440
aaa(lp2034
V76561198254335550
p2035
aI24
a(lp2036
I550
aI227300
aI212070
aI236390
aI214420
aI271590
aI730
aI431960
aI433850
aI503300
aa(lp2037
I570
aaa(lp2038
V76561198374317882
p2039
aI1
a(lp2040
I730
aa(lp2041
aa(lp2042
V76561198174928315
p2043
aI3
a(lp2044
I730
aa(lp2045
I570
aaa(lp2046
V76561198284330002
p2047
aI7
a(lp2048
I4000
aI730
aa(lp2049
aa(lp2050
V76561198315970269
p2051
aI1
a(lp2052
I730
aa(lp2053
aa(lp2054
V76561198286167306
p2055
aI8
a(lp2056
I251570
aI252490
aI291480
aI321040
aI323370
aI730
aI555570
aa(lp2057
aa(lp2058
V76561198241269942
p2059
aI0
a(lp2060
ag2057
aa(lp2061
V76561198276680846
p2062
aI6
a(lp2063
I254700
aI730
aa(lp2064
aa(lp2065
V76561198333167045
p2066
aI6
a(lp2067
I227300
aI304050
aI304930
aI730
aI417910
aa(lp2068
aa(lp2069
V76561198370571633
p2070
aI1
a(lp2071
I730
aa(lp2072
aa(lp2073
V76561198371161006
p2074
aI2
a(lp2075
I730
aa(lp2076
I570
aaa(lp2077
V76561198377494221
p2078
aI2
a(lp2079
I433850
aa(lp2080
aa(lp2081
V76561198339214831
p2082
aI8
a(lp2083
I730
aI244850
aI457140
aa(lp2084
aa(lp2085
V76561198369714755
p2086
aI2
a(lp2087
I433850
aa(lp2088
aa(lp2089
V76561198381075239
p2090
aI1
a(lp2091
I730
aa(lp2092
aa(lp2093
V76561198258361072
p2094
aI6
a(lp2095
I550
aI227300
aI730
aa(lp2096
aa(lp2097
V76561198327852079
p2098
aI4
a(lp2099
I730
aa(lp2100
I570
aaa(lp2101
V76561198201597342
p2102
aI6
a(lp2103
I271590
aI730
aI433850
aa(lp2104
aa(lp2105
V76561198295099378
p2106
aI16
a(lp2107
I252950
aI271590
aI301520
aI304930
aI730
aI339610
aI424280
aI444090
aa(lp2108
I440
aaa(lp2109
V76561198330801525
p2110
aI6
a(lp2111
I10
aI730
aa(lp2112
I570
aaa(lp2113
V76561198386699938
p2114
aI2
a(lp2115
I433850
aa(lp2116
aa(lp2117
V76561198184960343
p2118
aI2
a(lp2119
a(lp2120
I570
aaa(lp2121
V76561198318500996
p2122
aI4
a(lp2123
I381210
aI431960
aI433850
aa(lp2124
aa(lp2125
V76561198387049030
p2126
aI26
a(lp2127
I730
aa(lp2128
aa(lp2129
V76561198331084516
p2130
aI35
a(lp2131
I271590
aI274940
aI730
aI433850
aI381210
aI418370
aI578080
aa(lp2132
aa(lp2133
V76561197971464553
p2134
aI5
a(lp2135
I730
aI391540
aa(lp2136
aa(lp2137
V76561198381091857
p2138
aI1
a(lp2139
I730
aa(lp2140
aa(lp2141
V76561198050922630
p2142
aI81
a(lp2143
I240
aI2100
aI4000
aI22330
aI22320
aI20900
aI550
aI12210
aI34330
aI70000
aI20920
aI72850
aI730
aI265630
aI245170
aI271590
aI22100
aI48700
aI304930
aI211420
aI323470
aI340730
aI236430
aI255710
aI363970
aI322330
aI292030
aI374320
aI381210
aI383080
aI402840
aI236110
aI431960
aI433850
aI454650
aI377160
aI273350
aa(lp2144
I440
aI570
aI630
aI17500
aaa(lp2145
V76561198383009993
p2146
aI1
a(lp2147
I730
aa(lp2148
aa(lp2149
V76561198188655730
p2150
aI14
a(lp2151
I730
aI386360
aI436520
aa(lp2152
I440
aI570
aaa(lp2153
V76561198172292763
p2154
aI4
a(lp2155
I730
aI315880
aa(lp2156
I570
aaa(lp2157
V76561198379829373
p2158
aI2
a(lp2159
I433850
aa(lp2160
aa(lp2161
V76561198381014274
p2162
aI1
a(lp2163
I730
aa(lp2164
aa(lp2165
V76561198356542707
p2166
aI3
a(lp2167
I431960
aI433850
aa(lp2168
aa(lp2169
V76561198300180501
p2170
aI15
a(lp2171
I272350
aI271590
aI304050
aI304930
aI730
aI381210
aI299360
aI407530
aI434570
aI444090
aa(lp2172
I440
aaa(lp2173
V76561198098465382
p2174
aI19
a(lp2175
I264710
aI271590
aI251570
aI295110
aI433850
aI108600
aI304930
aI252490
aI393420
aa(lp2176
I570
aaa(lp2177
V76561198370967628
p2178
aI2
a(lp2179
I304930
aI730
aa(lp2180
aa(lp2181
V76561198375220821
p2182
aI2
a(lp2183
I433850
aa(lp2184
aa(lp2185
V76561198348656848
p2186
aI1
a(lp2187
I730
aa(lp2188
aa(lp2189
V76561198328431760
p2190
aI0
a(lp2191
ag2188
aa(lp2192
V76561198350544434
p2193
aI7
a(lp2194
I219640
aI433850
aI730
aa(lp2195
aa(lp2196
V76561198321110248
p2197
aI0
a(lp2198
ag2195
aa(lp2199
V76561198364317968
p2200
aI5
a(lp2201
I227300
aI730
aa(lp2202
aa(lp2203
V76561198375899918
p2204
aI2
a(lp2205
I433850
aa(lp2206
aa(lp2207
V76561198137412447
p2208
aI21
a(lp2209
I550
aI730
aI224260
aI251570
aI304930
aI389570
aa(lp2210
I440
aaa(lp2211
V76561198365421299
p2212
aI2
a(lp2213
I433850
aa(lp2214
aa(lp2215
V76561198377255924
p2216
aI11
a(lp2217
I252490
aI304050
aI730
aI344760
aI306130
aI359550
aI506540
aa(lp2218
aa(lp2219
V76561198281718986
p2220
aI3
a(lp2221
I433850
aa(lp2222
aa(lp2223
V76561198373556764
p2224
aI27
a(lp2225
I433850
aa(lp2226
aa(lp2227
V76561198358650113
p2228
aI1
a(lp2229
I730
aa(lp2230
aa(lp2231
V76561198359447352
p2232
aI5
a(lp2233
I730
aI447020
aa(lp2234
aa(lp2235
V76561198251148708
p2236
aI53
a(lp2237
I375960
aI363970
aI335240
aI312990
aI304930
aI314970
aI48700
aI8930
aI17390
aI459510
aI236850
aI282400
aI730
aa(lp2238
aa(lp2239
V76561198378648130
p2240
aI4
a(lp2241
I433850
aa(lp2242
aa(lp2243
V76561198359966033
p2244
aI18
a(lp2245
I240
aI299740
aI304930
aI291480
aI730
aI386940
aI291550
aI433850
aI513000
aI578080
aa(lp2246
I570
aaa(lp2247
V76561198158192651
p2248
aI7
a(lp2249
I730
aI433850
aa(lp2250
I570
aaa(lp2251
V76561198361733501
p2252
aI0
a(lp2253
ag2250
aa(lp2254
V76561198375920831
p2255
aI2
a(lp2256
I433850
aa(lp2257
aa(lp2258
V76561198356885606
p2259
aI17
a(lp2260
I253710
aI730
aI380600
aI433850
aa(lp2261
I440
aaa(lp2262
V76561198337104560
p2263
aI3
a(lp2264
I730
aa(lp2265
aa(lp2266
V76561198314503660
p2267
aI2
a(lp2268
I252490
aI730
aa(lp2269
aa(lp2270
V76561198272216398
p2271
aI30
a(lp2272
I230410
aI281920
aI313830
aI730
aI252490
aI339470
aI346630
aI351150
aI353550
aI395170
aI207140
aI505210
aI527770
aa(lp2273
I570
aaa(lp2274
V76561198378784370
p2275
aI2
a(lp2276
I730
aa(lp2277
aa(lp2278
V76561198365502126
p2279
aI2
a(lp2280
I433850
aI439700
aa(lp2281
aa(lp2282
V76561198334499521
p2283
aI3
a(lp2284
I227300
aI730
aa(lp2285
aa(lp2286
V76561198147224921
p2287
aI22
a(lp2288
I224260
aI282660
aI304930
aI317360
aI730
aI299360
aa(lp2289
I440
aI570
aaa(lp2290
V76561198377474687
p2291
aI1
a(lp2292
I730
aa(lp2293
aa(lp2294
V76561198386457102
p2295
aI1
a(lp2296
I730
aa(lp2297
aa(lp2298
V76561198386509422
p2299
aI2
a(lp2300
I730
aI273110
aa(lp2301
aa(lp2302
V76561198386497636
p2303
aI2
a(lp2304
I433850
aI439700
aa(lp2305
aa(lp2306
V76561198206535620
p2307
aI0
a(lp2308
ag2305
aa(lp2309
V76561198168954988
p2310
aI2
a(lp2311
a(lp2312
I570
aaa(lp2313
V76561198095945176
p2314
aI7
a(lp2315
I550
aI322330
aa(lp2316
I570
aaa(lp2317
V76561198367236022
p2318
aI1
a(lp2319
I730
aa(lp2320
aa(lp2321
V76561198352885210
p2322
aI3
a(lp2323
I240
aI730
aa(lp2324
I570
aaa(lp2325
V76561198372968770
p2326
aI2
a(lp2327
I304930
aI730
aa(lp2328
aa(lp2329
V76561198281937295
p2330
aI19
a(lp2331
I220260
aI730
aI407250
aI444090
aI541180
aa(lp2332
aa(lp2333
V76561198125249598
p2334
aI20
a(lp2335
I12210
aI42700
aI42710
aI12120
aI7940
aI273110
aI225840
aI730
aI391460
aI444200
aa(lp2336
aa(lp2337
V76561198385012658
p2338
aI1
a(lp2339
I730
aa(lp2340
aa(lp2341
V76561198378682370
p2342
aI1
a(lp2343
I730
aa(lp2344
aa(lp2345
V76561198348987921
p2346
aI26
a(lp2347
I224260
aI331710
aI354850
aI368900
aI432150
aI730
aI385200
aI395980
aI410590
aI447880
aI462370
aI516700
aI449630
aI459510
aI397620
aI460660
aI505440
aI559500
aI562270
aI581620
aI586380
aI595340
aa(lp2348
aa(lp2349
V76561198255943312
p2350
aI0
a(lp2351
ag2348
aa(lp2352
V76561198376807209
p2353
aI1
a(lp2354
I730
aa(lp2355
aa(lp2356
V76561198367221711
p2357
aI1
a(lp2358
I730
aa(lp2359
aa(lp2360
V76561198315128829
p2361
aI64
a(lp2362
I620
aI227300
aI242760
aI252490
aI304930
aI730
aI322330
aI381210
aI433850
aI444090
aa(lp2363
aa(lp2364
V76561198372886365
p2365
aI3
a(lp2366
I730
aa(lp2367
aa(lp2368
V76561198375305060
p2369
aI2
a(lp2370
I730
aa(lp2371
aa(lp2372
V76561198376430398
p2373
aI3
a(lp2374
I730
aI386360
aa(lp2375
aa(lp2376
V76561198321690805
p2377
aI1
a(lp2378
I730
aa(lp2379
aa(lp2380
V76561198385128308
p2381
aI1
a(lp2382
I730
aa(lp2383
aa(lp2384
V76561198344480927
p2385
aI22
a(lp2386
I227940
aI730
aI348020
aI444790
aI463040
aI463050
aI491170
aI492130
aI533640
aI546450
aI444200
aI587050
aI596170
aa(lp2387
aa(lp2388
V76561198263003145
p2389
aI51
a(lp2390
I227300
aI242760
aI238320
aI730
aI349700
aI375960
aI407250
aa(lp2391
I570
aaa(lp2392
V76561198376761517
p2393
aI13
a(lp2394
I227300
aI218230
aI236390
aI214420
aI206420
aI247910
aI302670
aI227940
aI431960
aI433850
aa(lp2395
aa(lp2396
V76561198366552188
p2397
aI5
a(lp2398
I730
aI444090
aa(lp2399
aa(lp2400
V76561198306746129
p2401
aI2
a(lp2402
I730
aa(lp2403
aa(lp2404
V76561198372685467
p2405
aI1
a(lp2406
I730
aa(lp2407
aa(lp2408
V76561198319489040
p2409
aI4
a(lp2410
I730
aI555570
aI506540
aa(lp2411
aa(lp2412
V76561198074899577
p2413
aI57
a(lp2414
I240
aI4000
aI12210
aI1250
aI70000
aI105600
aI204100
aI730
aI219640
aI55230
aI236390
aI72850
aI224540
aI8190
aI206420
aI237110
aI218620
aI213670
aI550
aI238460
aI301520
aI304930
aI317360
aI331470
aI338180
aI271590
aa(lp2415
I440
aI570
aaa(lp2416
V76561198352584752
p2417
aI9
a(lp2418
I236390
aI304050
aI730
aI444090
aa(lp2419
aa(lp2420
V76561198315930159
p2421
aI0
a(lp2422
ag2419
aa(lp2423
V76561198329859998
p2424
aI28
a(lp2425
I271590
aI349040
aI394310
aI550
aI49520
aI8930
aI225540
aI431960
aI371660
aI322330
aI460930
aI218620
aI730
aI222940
aI584210
aa(lp2426
I570
aaa(lp2427
V76561198203955023
p2428
aI45
a(lp2429
I4000
aI24740
aI55230
aI302830
aI304930
aI227940
aI730
aI303390
aI299360
aI444200
aa(lp2430
I570
aI17700
aaa(lp2431
V76561198385680801
p2432
aI1
a(lp2433
I730
aa(lp2434
aa(lp2435
V76561198044345128
p2436
aI4
a(lp2437
I326460
aI730
aa(lp2438
I440
aaa(lp2439
V76561198278822930
p2440
aI11
a(lp2441
I242760
aI252950
aI304930
aI730
aI225540
aI431240
aI433850
aI444090
aa(lp2442
aa(lp2443
V76561198110284670
p2444
aI0
a(lp2445
ag2442
aa(lp2446
V76561198386341424
p2447
aI2
a(lp2448
I730
aa(lp2449
I570
aaa(lp2450
V76561198371532791
p2451
aI2
a(lp2452
I433850
aa(lp2453
aa(lp2454
V76561198193953229
p2455
aI52
a(lp2456
I4000
aI113400
aI226320
aI252490
aI274920
aI271590
aI291550
aI431960
aI433800
aI433850
aI295110
aI447040
aI578080
aI460930
aa(lp2457
I440
aaa(lp2458
V76561198385338976
p2459
aI6
a(lp2460
I230410
aI304930
aI730
aa(lp2461
aa(lp2462
V76561198329566623
p2463
aI11
a(lp2464
I10
aI730
aa(lp2465
I440
aaa(lp2466
V76561198377595054
p2467
aI2
a(lp2468
I433850
aa(lp2469
aa(lp2470
V76561198384100019
p2471
aI1
a(lp2472
I730
aa(lp2473
aa(lp2474
V76561198076579785
p2475
aI61
a(lp2476
I4000
aI220
aI380
aI400
aI420
aI550
aI620
aI730
aI236390
aI218620
aI49520
aI268850
aI290930
aI286690
aI304930
aI206420
aI321040
aI214490
aI261640
aI24240
aI257510
aI359550
aI239140
aI391220
aI273350
aa(lp2477
I440
aaa(lp2478
V76561198382550701
p2479
aI6
a(lp2480
I48000
aI203160
aI730
aI444090
aa(lp2481
aa(lp2482
V76561198322582269
p2483
aI8
a(lp2484
I252950
aI730
aa(lp2485
aa(lp2486
V76561198217507811
p2487
aI6
a(lp2488
I346110
aI433850
aa(lp2489
aa(lp2490
V76561198373042110
p2491
aI2
a(lp2492
I730
aa(lp2493
aa(lp2494
V76561198377358485
p2495
aI0
a(lp2496
ag2493
aa(lp2497
V76561198386717378
p2498
aI1
a(lp2499
I730
aa(lp2500
aa(lp2501
V76561198099013411
p2502
aI198
a(lp2503
I300
aI220
aI34900
aI620
aI91200
aI105600
aI107310
aI223470
aI237570
aI239030
aI253980
aI270090
aI550
aI274560
aI251570
aI236430
aI299460
aI238090
aI314020
aI321040
aI327680
aI331710
aI354850
aI368900
aI432150
aI10
aI240
aI730
aI219150
aI274170
aI343360
aI348020
aI357770
aI357900
aI360890
aI368990
aI373180
aI219740
aI322330
aI380020
aI252950
aI388120
aI390970
aI400250
aI403570
aI403900
aI410210
aI385200
aI395980
aI410590
aI415490
aI418070
aI420740
aI397620
aI431270
aI460660
aI432470
aI434010
aI444290
aI444790
aI447880
aI462370
aI516700
aI448250
aI448260
aI449220
aI451880
aI458600
aI458940
aI462200
aI463050
aI466790
aI467370
aI473560
aI473730
aI476480
aI485390
aI485410
aI487180
aI489220
aI48000
aI493730
aI496680
aI497350
aI486480
aI501800
aI501900
aI501920
aI501930
aI502910
aI506670
aI507380
aI508290
aI513530
aI513630
aI513780
aI514970
aI518100
aI521940
aI527550
aI527750
aI527760
aI539350
aI531490
aI540020
aI537860
aI542340
aI542430
aI543170
aI543420
aI543770
aI543780
aI545280
aI545360
aI545370
aI554530
aI555700
aI555930
aI556120
aI558620
aI562710
aI563140
aI567250
aI567940
aI574810
aI575490
aI575750
aI575760
aI575780
aI575840
aI578250
aI581430
aI581470
aI581610
aI581620
aI581640
aI581720
aI582280
aI582430
aI582580
aI585560
aI586090
aI586470
aI586520
aI586530
aI586540
aI587590
aI589390
aI351940
aI595340
aI600450
aI601280
aI602220
aI603370
aI606050
aI498320
aI613250
aa(lp2504
I570
aaa(lp2505
V76561198494675137
p2506
aI5
a(lp2507
I433850
aI295110
aI360430
aa(lp2508
aa(lp2509
V76561198307250208
p2510
aI2
a(lp2511
I730
aI273110
aa(lp2512
aa(lp2513
V76561198362087104
p2514
aI2
a(lp2515
a(lp2516
I570
aaa(lp2517
V76561198377271751
p2518
aI2
a(lp2519
I433850
aa(lp2520
aa(lp2521
V76561198127792301
p2522
aI5
a(lp2523
I433850
aa(lp2524
I570
aaa(lp2525
V76561198334605330
p2526
aI3
a(lp2527
I381210
aa(lp2528
I570
aaa(lp2529
V76561198154114984
p2530
aI22
a(lp2531
I240
aI33250
aI550
aI24960
aI730
aI202990
aI272350
aI291480
aI319630
aI368500
aI431240
aI433850
aI442080
aa(lp2532
aa(lp2533
V76561198361608685
p2534
aI11
a(lp2535
I230410
aI301520
aI730
aI334230
aa(lp2536
aa(lp2537
V76561198387055648
p2538
aI2
a(lp2539
I433850
aa(lp2540
aa(lp2541
V76561198269436428
p2542
aI28
a(lp2543
I236390
aI214420
aI252490
aI304930
aI730
aI346110
aI407530
aI299740
aI291550
aI389570
aI299360
aI311210
aI433850
aI244930
aI505040
aI524970
aa(lp2544
aa(lp2545
V76561198373699826
p2546
aI1
a(lp2547
I730
aa(lp2548
aa(lp2549
V76561198372416807
p2550
aI1
a(lp2551
I730
aa(lp2552
aa(lp2553
V76561198378171680
p2554
aI1
a(lp2555
I730
aa(lp2556
aa(lp2557
V76561198335055968
p2558
aI9
a(lp2559
I550
aI271590
aI285900
aI433850
aI295110
aa(lp2560
aa(lp2561
V76561198386591501
p2562
aI0
a(lp2563
ag2560
aa(lp2564
V76561198344905685
p2565
aI7
a(lp2566
I730
aI555570
aa(lp2567
I440
aaa(lp2568
V76561198360594837
p2569
aI2
a(lp2570
I730
aa(lp2571
I570
aaa(lp2572
V76561198114209837
p2573
aI4
a(lp2574
a(lp2575
I570
aaa(lp2576
V76561198287045765
p2577
aI9
a(lp2578
I381210
aI433850
aI439700
aa(lp2579
aa(lp2580
V76561198026270866
p2581
aI22
a(lp2582
I24960
aI109600
aI252950
aI271590
aI282660
aI323370
aI730
aI346110
aI349700
aI369200
aI391460
aI107410
aa(lp2583
I570
aaa(lp2584
V76561198263490583
p2585
aI9
a(lp2586
I227300
aI252950
aI730
aa(lp2587
aa(lp2588
V76561198241330536
p2589
aI2
a(lp2590
I433850
aa(lp2591
aa(lp2592
V76561198035603265
p2593
aI9
a(lp2594
I42700
aI42710
aI220260
aI730
aI113400
aI39120
aa(lp2595
I440
aaa(lp2596
V76561198049047149
p2597
aI52
a(lp2598
I10
aI80
aI240
aI4000
aI224540
aI11020
aI113400
aI206210
aI230410
aI252950
aI291550
aI730
aI346900
aI363970
aI389570
aI444090
aI466910
aI482920
aa(lp2599
I440
aI570
aI24200
aaa(lp2600
V76561198283587180
p2601
aI1
a(lp2602
I730
aa(lp2603
aa(lp2604
V76561198272219152
p2605
aI15
a(lp2606
I4000
aI252950
aI238460
aI304930
aI730
aI291550
aI424280
aI444090
aI207140
aa(lp2607
aa(lp2608
V76561198374574955
p2609
aI6
a(lp2610
I230410
aI730
aI444090
aa(lp2611
aa(lp2612
V76561198259609120
p2613
aI16
a(lp2614
I291480
aI730
aI389430
aI444090
aI459510
aa(lp2615
aa(lp2616
V76561198386720705
p2617
aI0
a(lp2618
ag2615
aa(lp2619
V76561198116172075
p2620
aI9
a(lp2621
I730
aI295110
aI433850
aa(lp2622
aa(lp2623
V76561198257499720
p2624
aI6
a(lp2625
I304930
aI730
aI241560
aa(lp2626
aa(lp2627
V76561198306444415
p2628
aI0
a(lp2629
ag2626
aa(lp2630
V76561198268716255
p2631
aI0
a(lp2632
ag2626
aa(lp2633
V76561198355854375
p2634
aI6
a(lp2635
I304930
aI730
aI444090
aa(lp2636
aa(lp2637
V76561198372034502
p2638
aI3
a(lp2639
I730
aa(lp2640
aa(lp2641
V76561198357248918
p2642
aI4
a(lp2643
I252490
aI730
aI346110
aI407530
aa(lp2644
aa(lp2645
V76561198319197692
p2646
aI18
a(lp2647
I240
aI620
aI11020
aI209870
aI252950
aI227940
aI730
aI333930
aI476460
aa(lp2648
aa(lp2649
V76561198383079371
p2650
aI1
a(lp2651
I730
aa(lp2652
aa(lp2653
V76561198362042663
p2654
aI2
a(lp2655
I730
aa(lp2656
I570
aaa(lp2657
V76561197999620924
p2658
aI2
a(lp2659
I730
aa(lp2660
aa(lp2661
V76561198090027480
p2662
aI12
a(lp2663
I730
aI218620
aI219740
aI322330
aI289070
aa(lp2664
I570
aaa(lp2665
V76561198271630493
p2666
aI5
a(lp2667
I227300
aI730
aa(lp2668
aa(lp2669
V76561198178085778
p2670
aI0
a(lp2671
ag2668
aa(lp2672
V76561198370700575
p2673
aI3
a(lp2674
I433850
aa(lp2675
aa(lp2676
V76561197997819809
p2677
aI0
a(lp2678
ag2675
aa(lp2679
V76561198364116815
p2680
aI3
a(lp2681
I730
aI568810
aa(lp2682
aa(lp2683
V76561198172009502
p2684
aI28
a(lp2685
I10
aI4000
aI550
aI227300
aI230410
aI252490
aI271590
aI301520
aI304930
aI227940
aI320140
aI730
aI333930
aI273350
aa(lp2686
I570
aaa(lp2687
V76561198379758518
p2688
aI2
a(lp2689
I730
aa(lp2690
aa(lp2691
V76561198371973409
p2692
aI0
a(lp2693
ag2690
aa(lp2694
V76561198353216403
p2695
aI1
a(lp2696
I730
aa(lp2697
aa(lp2698
V76561198077060159
p2699
aI40
a(lp2700
I271590
aI203160
aI319630
aI730
aI299740
aI322330
aI420290
aI431960
aI391220
aI433850
aI295110
aI381210
aI304390
aI584210
aa(lp2701
I570
aaa(lp2702
V76561198181083203
p2703
aI15
a(lp2704
I304030
aI730
aI351640
aI363970
aI386360
aa(lp2705
aa(lp2706
V76561198147750722
p2707
aI4
a(lp2708
I304930
aI433850
aa(lp2709
aa(lp2710
V76561198343553803
p2711
aI4
a(lp2712
I63380
aI238090
aI433850
aa(lp2713
aa(lp2714
V76561198173722461
p2715
aI26
a(lp2716
I201870
aI67370
aI230410
aI12120
aI304930
aI314160
aI317360
aI238320
aI730
aI332800
aa(lp2717
I440
aaa(lp2718
V76561198238741784
p2719
aI8
a(lp2720
I304050
aI730
aI363970
aI385770
aa(lp2721
aa(lp2722
V76561198353165520
p2723
aI9
a(lp2724
I227300
aI730
aa(lp2725
aa(lp2726
V76561198371364462
p2727
aI3
a(lp2728
I433850
aa(lp2729
aa(lp2730
V76561198372161067
p2731
aI2
a(lp2732
I433850
aa(lp2733
aa(lp2734
V76561198352040185
p2735
aI3
a(lp2736
I730
aI444090
aa(lp2737
aa(lp2738
V76561198256904130
p2739
aI43
a(lp2740
I207610
aI730
aI203140
aI230410
aI242760
aI252950
aI227300
aI286940
aI304930
aI291480
aI321040
aI335240
aI346900
aI389570
aI352460
aI299360
aI407250
aI280790
aI433850
aa(lp2741
I440
aaa(lp2742
V76561198134199789
p2743
aI103
a(lp2744
I4000
aI33910
aI550
aI223530
aI24960
aI12210
aI72850
aI730
aI219640
aI220240
aI102700
aI113400
aI206210
aI218230
aI236390
aI224260
aI91310
aI216250
aI250340
aI222880
aI304050
aI304930
aI227700
aI291480
aI227940
aI369200
aI386360
aI434570
aI444090
aI444200
aI436520
aI506540
aa(lp2745
I440
aI24200
aaa(lp2746
V76561198261691428
p2747
aI2741
a(lp2748
I220
aI240
aI300
aI2500
aI3830
aI4000
aI9450
aI11250
aI11260
aI18300
aI29800
aI1250
aI34900
aI550
aI34270
aI70100
aI41000
aI41010
aI72900
aI7520
aI72400
aI40800
aI45450
aI70000
aI620
aI91200
aI92100
aI42140
aI19680
aI46500
aI46510
aI46540
aI22230
aI96100
aI61100
aI41070
aI111100
aI42170
aI211360
aI204180
aI207080
aI205910
aI55150
aI108710
aI214340
aI209080
aI215510
aI218640
aI206440
aI209670
aI217690
aI7510
aI220820
aI222160
aI57690
aI1930
aI223470
aI215930
aI204100
aI212700
aI113400
aI212500
aI218230
aI230410
aI236390
aI269390
aI223750
aI252150
aI204240
aI224220
aI203160
aI232770
aI220900
aI72850
aI233250
aI201420
aI239450
aI244870
aI241620
aI243780
aI248330
aI248530
aI232430
aI226960
aI250030
aI251530
aI251690
aI251910
aI252010
aI252170
aI252270
aI252330
aI253650
aI253900
aI253940
aI253980
aI200170
aI255300
aI219990
aI238910
aI233130
aI257830
aI257990
aI258010
aI258050
aI247000
aI242050
aI258890
aI259470
aI259550
aI259620
aI259740
aI259870
aI217100
aI262280
aI263060
aI263080
aI263320
aI264280
aI264300
aI264730
aI265330
aI265930
aI266940
aI267060
aI267920
aI268200
aI269210
aI269270
aI269490
aI269890
aI270090
aI270170
aI270330
aI270550
aI271570
aI271590
aI271820
aI271860
aI273500
aI273770
aI274190
aI222880
aI275080
aI275470
aI275490
aI277490
aI277500
aI277680
aI277700
aI277870
aI278570
aI279720
aI279800
aI280140
aI280320
aI280640
aI281920
aI282100
aI283040
aI283290
aI283330
aI283660
aI284730
aI284770
aI284810
aI284830
aI284930
aI284950
aI351030
aI285010
aI285050
aI285070
aI285090
aI285480
aI285840
aI286040
aI286320
aI286810
aI286830
aI287120
aI287140
aI288470
aI8870
aI289090
aI289890
aI290280
aI291010
aI291270
aI292370
aI292380
aI292410
aI292570
aI292620
aI292630
aI293180
aI293320
aI294020
aI294040
aI294230
aI295690
aI295990
aI296050
aI296070
aI222900
aI296870
aI297020
aI298360
aI298600
aI298820
aI298830
aI298840
aI299460
aI299720
aI300220
aI301190
aI301200
aI219910
aI230820
aI243200
aI268540
aI301680
aI301750
aI302010
aI302470
aI303390
aI303510
aI304670
aI305640
aI306200
aI306350
aI306410
aI224600
aI307070
aI307130
aI307230
aI307350
aI300300
aI308000
aI308040
aI311080
aI311100
aI311120
aI311140
aI311190
aI311860
aI311870
aI312630
aI313130
aI313650
aI313830
aI314290
aI314450
aI275510
aI314700
aI277950
aI315060
aI315920
aI316890
aI317040
aI317250
aI318220
aI318430
aI319180
aI319320
aI319970
aI320150
aI320630
aI320650
aI320690
aI320790
aI321040
aI321150
aI321360
aI321400
aI321950
aI322900
aI322970
aI323460
aI221040
aI302510
aI241930
aI239140
aI324800
aI326120
aI326180
aI326190
aI6850
aI6860
aI6880
aI6900
aI6910
aI6920
aI8190
aI28000
aI203140
aI205930
aI238010
aI239160
aI247430
aI258180
aI327410
aI327680
aI328500
aI329950
aI330350
aI330470
aI274940
aI331710
aI354850
aI368900
aI432150
aI331720
aI730
aI331790
aI332480
aI218620
aI332780
aI332790
aI333740
aI333930
aI334070
aI334300
aI334560
aI336090
aI336200
aI336280
aI337420
aI338120
aI338320
aI319630
aI338710
aI338810
aI339160
aI2400
aI339290
aI339470
aI340070
aI340320
aI340650
aI340810
aI340830
aI341060
aI341090
aI341120
aI341160
aI341310
aI341380
aI341530
aI341690
aI341730
aI340820
aI341780
aI341860
aI342350
aI340220
aI342580
aI342980
aI343100
aI343340
aI343360
aI343390
aI344040
aI344130
aI344300
aI344750
aI344910
aI345120
aI345220
aI345540
aI314010
aI346080
aI346210
aI346630
aI346850
aI346950
aI347030
aI347430
aI347510
aI347560
aI348020
aI348340
aI348360
aI348450
aI348530
aI348670
aI348730
aI348870
aI348960
aI349140
aI349260
aI349500
aI350010
aI346780
aI287290
aI351150
aI351340
aI351400
aI351470
aI351490
aI351800
aI351940
aI352190
aI326950
aI353070
aI274620
aI353550
aI350810
aI351480
aI354620
aI354860
aI354920
aI355430
aI255710
aI355760
aI355840
aI355920
aI355970
aI356200
aI235540
aI357070
aI334420
aI356380
aI357200
aI357280
aI357290
aI357370
aI357770
aI357780
aI357900
aI338530
aI359050
aI359260
aI359810
aI360010
aI232090
aI360380
aI360390
aI360640
aI360650
aI360850
aI336420
aI360970
aI361190
aI361600
aI227300
aI362140
aI362610
aI363490
aI363510
aI363610
aI363620
aI363790
aI364270
aI364480
aI364910
aI316430
aI365120
aI365310
aI364690
aI366610
aI366760
aI366890
aI363580
aI104200
aI263980
aI315430
aI341500
aI368730
aI368750
aI397620
aI368970
aI368990
aI369000
aI369040
aI369080
aI369370
aI369580
aI370040
aI370090
aI370100
aI370510
aI370700
aI370710
aI371000
aI371180
aI371210
aI371100
aI371280
aI371450
aI371460
aI371570
aI371670
aI371710
aI372210
aI226860
aI372490
aI292030
aI371330
aI373110
aI373290
aI373440
aI374460
aI375010
aI375430
aI375460
aI375510
aI375620
aI376730
aI274560
aI376920
aI377290
aI377310
aI377570
aI377600
aI377760
aI378100
aI378270
aI379320
aI380020
aI380580
aI380790
aI365590
aI381170
aI381870
aI382080
aI382120
aI382240
aI382300
aI383030
aI383330
aI383520
aI383560
aI383580
aI380550
aI384120
aI384480
aI385070
aI385080
aI385200
aI395980
aI410590
aI385230
aI385270
aI385360
aI385560
aI384950
aI385800
aI385830
aI385900
aI385980
aI386110
aI386140
aI386260
aI386360
aI386420
aI387060
aI387840
aI387880
aI387930
aI388050
aI388120
aI388360
aI388390
aI388620
aI388660
aI388870
aI389160
aI313020
aI364050
aI389300
aI389310
aI389400
aI389460
aI389700
aI234140
aI306040
aI314020
aI355150
aI390970
aI391070
aI391160
aI391170
aI391260
aI391300
aI391310
aI391340
aI391490
aI391560
aI391660
aI391740
aI391820
aI391420
aI392050
aI392820
aI385240
aI392920
aI392930
aI392870
aI393150
aI393230
aI394540
aI394870
aI395170
aI395400
aI396160
aI396360
aI396530
aI395380
aI396790
aI396800
aI396860
aI397090
aI397210
aI225540
aI397500
aI397550
aI397570
aI416270
aI431270
aI397980
aI398070
aI398160
aI398680
aI398710
aI398940
aI399130
aI399230
aI399270
aI399430
aI399580
aI399790
aI400240
aI400250
aI400370
aI400510
aI400740
aI400790
aI401120
aI401190
aI401560
aI401680
aI387870
aI402210
aI402330
aI402850
aI403560
aI403570
aI403900
aI403740
aI404660
aI404690
aI404700
aI397940
aI404770
aI405040
aI405590
aI405610
aI405950
aI406080
aI406090
aI406210
aI406310
aI340300
aI340310
aI371420
aI407150
aI407230
aI407300
aI407680
aI407750
aI408110
aI408440
aI409340
aI409380
aI409420
aI409440
aI410210
aI388410
aI462780
aI410440
aI236110
aI410560
aI410670
aI411120
aI411740
aI411760
aI412130
aI412150
aI412170
aI412540
aI412600
aI412620
aI413680
aI414060
aI414290
aI414580
aI414660
aI414920
aI415080
aI415490
aI415960
aI416020
aI416030
aI416040
aI416080
aI416170
aI460660
aI416550
aI416610
aI417920
aI418040
aI418070
aI414070
aI418160
aI418270
aI418310
aI418440
aI418610
aI418640
aI419090
aI420670
aI420740
aI420850
aI421060
aI421810
aI421880
aI422100
aI422250
aI422980
aI423710
aI423760
aI423770
aI423840
aI423920
aI424000
aI424830
aI425340
aI390570
aI426290
aI427780
aI428530
aI428630
aI428830
aI428430
aI428950
aI429060
aI429200
aI429330
aI428900
aI429470
aI429700
aI430020
aI430080
aI431220
aI431240
aI431260
aI431560
aI431710
aI431840
aI431990
aI432020
aI432170
aI432280
aI432470
aI433110
aI433210
aI433950
aI391220
aI434010
aI434210
aI434250
aI434360
aI434420
aI434500
aI434610
aI434780
aI434800
aI434890
aI434920
aI435140
aI436140
aI436390
aI264240
aI437390
aI437890
aI438010
aI438030
aI438080
aI438180
aI438480
aI439250
aI439910
aI439930
aI440730
aI440760
aI441050
aI441870
aI443460
aI443680
aI444090
aI444160
aI444220
aI444290
aI444410
aI444460
aI444480
aI444720
aI444790
aI444260
aI445880
aI434980
aI446640
aI447850
aI447860
aI447880
aI462370
aI516700
aI447890
aI447960
aI447970
aI447990
aI448000
aI448020
aI448070
aI448090
aI448130
aI448150
aI448250
aI448260
aI448440
aI448470
aI448560
aI448640
aI448660
aI448350
aI448780
aI448790
aI448940
aI449060
aI449200
aI449210
aI449220
aI449280
aI449440
aI449520
aI449530
aI449540
aI449630
aI449680
aI449760
aI450190
aI450850
aI451350
aI451830
aI451880
aI452450
aI453100
aI453270
aI453660
aI453670
aI453820
aI453830
aI453850
aI453960
aI453980
aI454040
aI454080
aI454100
aI454180
aI454200
aI454460
aI454670
aI454690
aI454720
aI454890
aI454930
aI454970
aI454070
aI455710
aI455940
aI455970
aI456160
aI370770
aI456660
aI456810
aI457450
aI457480
aI457710
aI457820
aI457930
aI457940
aI458420
aI458520
aI458600
aI458700
aI458900
aI458940
aI459020
aI459100
aI505440
aI460960
aI461010
aI461140
aI461230
aI461360
aI461380
aI461390
aI461490
aI461520
aI461570
aI461640
aI461690
aI461720
aI461730
aI461760
aI461850
aI461880
aI461890
aI461940
aI462060
aI462200
aI462220
aI462030
aI462730
aI322950
aI462960
aI463040
aI463050
aI463100
aI463110
aI463180
aI463210
aI463220
aI463350
aI463520
aI463550
aI463620
aI463710
aI463930
aI464230
aI464760
aI464960
aI381210
aI466420
aI466730
aI466780
aI466790
aI466840
aI466890
aI467000
aI467010
aI467370
aI467390
aI467530
aI467560
aI467950
aI468320
aI468490
aI469730
aI469890
aI470270
aI470450
aI471170
aI471910
aI473470
aI473510
aI473520
aI473540
aI473560
aI473580
aI473620
aI473630
aI473640
aI473650
aI473670
aI473710
aI473730
aI473810
aI473840
aI474050
aI474820
aI474910
aI475220
aI475240
aI475430
aI476240
aI476480
aI476880
aI477180
aI477290
aI477980
aI478010
aI479260
aI480480
aI481600
aI481870
aI482120
aI482300
aI482330
aI475250
aI485080
aI485220
aI485310
aI485330
aI485350
aI485370
aI485390
aI485410
aI485440
aI485450
aI485490
aI485500
aI485570
aI485620
aI485700
aI485730
aI485740
aI485860
aI485870
aI485890
aI485920
aI485950
aI486120
aI486150
aI486340
aI486360
aI486820
aI486850
aI486880
aI487030
aI487180
aI487220
aI487270
aI487370
aI487530
aI487580
aI487590
aI487600
aI487700
aI488200
aI488580
aI489220
aI489470
aI484950
aI489580
aI489730
aI489890
aI489900
aI304390
aI490820
aI488280
aI490940
aI490980
aI491030
aI491080
aI491160
aI491170
aI491250
aI491260
aI491330
aI491580
aI491620
aI491650
aI491720
aI491730
aI492130
aI492240
aI492270
aI492490
aI493650
aI493700
aI493710
aI493730
aI493760
aI494120
aI495350
aI495780
aI496500
aI496530
aI496550
aI496600
aI496680
aI496750
aI496870
aI497050
aI497100
aI497260
aI497350
aI497400
aI498030
aI498040
aI498050
aI498660
aI417910
aI499420
aI499900
aI499960
aI273350
aI500570
aI500580
aI500590
aI486480
aI501030
aI501690
aI501720
aI501760
aI501800
aI501830
aI501880
aI501900
aI501920
aI501930
aI502090
aI502140
aI502240
aI502910
aI503300
aI503820
aI503830
aI503960
aI504490
aI504770
aI504980
aI505210
aI505760
aI506670
aI506730
aI506590
aI507390
aI507400
aI508140
aI508170
aI508180
aI508290
aI508600
aI508670
aI508760
aI508820
aI508960
aI509000
aI509110
aI509220
aI509240
aI509600
aI509850
aI509930
aI510330
aI510840
aI511340
aI511630
aI511670
aI510220
aI511330
aI512020
aI512450
aI512640
aI512740
aI512770
aI513510
aI513530
aI513570
aI513610
aI513620
aI513630
aI513780
aI514470
aI514480
aI514490
aI514660
aI514970
aI515310
aI515470
aI515690
aI515910
aI516230
aI517010
aI518100
aI518320
aI518650
aI518800
aI520290
aI520520
aI520530
aI520820
aI521100
aI521190
aI521230
aI521590
aI521630
aI521920
aI521930
aI521940
aI521980
aI522570
aI523790
aI523900
aI521000
aI524340
aI525290
aI525300
aI525600
aI526250
aI526350
aI526460
aI526540
aI526740
aI526790
aI526880
aI527480
aI527490
aI527510
aI527540
aI527570
aI527710
aI527750
aI527760
aI527770
aI527800
aI527810
aI527990
aI528080
aI528090
aI528210
aI528510
aI528660
aI529900
aI529950
aI530540
aI531860
aI307780
aI532030
aI532090
aI532600
aI533120
aI533150
aI533300
aI533330
aI533340
aI533620
aI533640
aI533710
aI533860
aI533910
aI534500
aI535250
aI535260
aI535690
aI535760
aI536410
aI536420
aI537360
aI537700
aI538590
aI538660
aI538920
aI539350
aI539360
aI539380
aI539440
aI539450
aI539460
aI531490
aI539720
aI539750
aI540020
aI540120
aI540310
aI287700
aI540640
aI540900
aI541100
aI541380
aI537860
aI542280
aI542340
aI542430
aI542690
aI542710
aI542720
aI542730
aI542740
aI542930
aI543170
aI543360
aI543420
aI543770
aI543780
aI543790
aI543650
aI544140
aI544870
aI489520
aI545250
aI545280
aI545320
aI545350
aI545360
aI545370
aI545470
aI545590
aI545690
aI545800
aI545860
aI545950
aI546340
aI546400
aI546450
aI546700
aI546930
aI546920
aI546980
aI546990
aI547310
aI547470
aI547960
aI548230
aI548330
aI548710
aI549670
aI549810
aI549900
aI550420
aI550580
aI550810
aI551080
aI551550
aI551680
aI551930
aI552160
aI552390
aI552780
aI552980
aI554310
aI554800
aI555260
aI555430
aI555620
aI555670
aI555700
aI555710
aI555920
aI555930
aI555940
aI556010
aI556120
aI556130
aI526920
aI556280
aI556870
aI557260
aI557580
aI557680
aI558620
aI558810
aI559500
aI559940
aI252850
aI560710
aI558610
aI562050
aI562220
aI562240
aI562270
aI562300
aI562360
aI562520
aI562600
aI562650
aI562660
aI562710
aI562760
aI563120
aI563140
aI563510
aI566060
aI566220
aI566290
aI565860
aI565340
aI566990
aI567250
aI521340
aI567280
aI567290
aI567580
aI567800
aI567940
aI568450
aI568650
aI568720
aI568890
aI569330
aI569490
aI569540
aI569610
aI569760
aI569840
aI569970
aI571020
aI571870
aI571910
aI422870
aI573210
aI574030
aI574580
aI574620
aI574630
aI574640
aI574690
aI574810
aI574850
aI575130
aI575140
aI575460
aI575580
aI575640
aI575680
aI575700
aI575730
aI575740
aI575750
aI575760
aI575780
aI575840
aI575860
aI575870
aI575910
aI575920
aI576010
aI576050
aI576080
aI576440
aI576540
aI576560
aI576660
aI576730
aI576750
aI576810
aI576880
aI577460
aI577740
aI578080
aI578180
aI578250
aI578260
aI578830
aI579150
aI579230
aI580150
aI580420
aI580990
aI581000
aI581010
aI581030
aI581050
aI581200
aI581280
aI581350
aI581430
aI581470
aI581610
aI581620
aI581640
aI581670
aI581680
aI581690
aI581720
aI581760
aI581800
aI581820
aI581860
aI581970
aI582280
aI582430
aI582480
aI582580
aI583490
aI583660
aI583760
aI584800
aI585550
aI585560
aI585580
aI585690
aI585720
aI585770
aI585780
aI585790
aI585830
aI585950
aI586060
aI586090
aI586130
aI586190
aI586400
aI586470
aI586480
aI586520
aI586530
aI586620
aI586960
aI586970
aI587050
aI587590
aI587810
aI587830
aI588100
aI587750
aI588420
aI588710
aI588970
aI589390
aI591420
aI593290
aI594720
aI595320
aI595340
aI595440
aI595460
aI596590
aI596600
aI596690
aI596870
aI588730
aI600340
aI600450
aI601180
aI601280
aI601340
aI601930
aI602220
aI601240
aI602890
aI602990
aI603150
aI603190
aI603290
aI603370
aI603570
aI603750
aI603770
aI603780
aI603890
aI604570
aI604780
aI604810
aI604830
aI605470
aI605520
aI605530
aI605910
aI606050
aI606330
aI607200
aI607440
aI608390
aI608560
aI608830
aI407840
aI498320
aI610810
aI610930
aI611140
aI611320
aI611530
aI611980
aI613250
aI598470
aI600210
aI219640
aI614900
aI614910
aI617710
aI618120
aI618540
aI619400
aI619740
aI620340
aI621150
aI621530
aI623580
aI628420
aI629280
aa(lp2749
I440
aaa(lp2750
V76561198385576514
p2751
aI0
a(lp2752
ag2749
aa(lp2753
V76561198359234456
p2754
aI1
a(lp2755
I730
aa(lp2756
aa(lp2757
V76561198382041706
p2758
aI1
a(lp2759
I730
aa(lp2760
aa(lp2761
V76561198456059088
p2762
aI25
a(lp2763
I4000
aI550
aI48000
aI72850
aI253980
aI730
aI380600
aI385770
aI388410
aI239140
aI433950
aI510050
aI588430
aa(lp2764
I440
aI570
aaa(lp2765
V76561198329972340
p2766
aI0
a(lp2767
ag2764
aa(lp2768
V76561198344424164
p2769
aI1
a(lp2770
I730
aa(lp2771
aa(lp2772
V76561198373106811
p2773
aI2
a(lp2774
I433850
aa(lp2775
aa(lp2776
V76561198372268146
p2777
aI2
a(lp2778
I433850
aa(lp2779
aa(lp2780
V76561198341937082
p2781
aI18
a(lp2782
I730
aI346110
aI444090
aa(lp2783
aa(lp2784
V76561198126411100
p2785
aI5
a(lp2786
I730
aI433850
aa(lp2787
aa(lp2788
V76561198280799039
p2789
aI33
a(lp2790
I11020
aI265630
aI244850
aI252490
aI304050
aI304930
aI730
aI291550
aI389570
aI280790
aI444090
aI370770
aI459510
aI466910
aI588430
aa(lp2791
I440
aaa(lp2792
V76561198352496597
p2793
aI8
a(lp2794
I730
aI444090
aa(lp2795
aa(lp2796
V76561198137487031
p2797
aI65
a(lp2798
I550
aI72850
aI55230
aI242720
aI216150
aI242760
aI231430
aI205100
aI209160
aI271590
aI286940
aI323370
aI326480
aI333600
aI333930
aI301910
aI307780
aI355180
aI291550
aI391460
aI280790
aI379720
aa(lp2799
I440
aaa(lp2800
V76561198264143292
p2801
aI6
a(lp2802
I730
aI304930
aa(lp2803
aa(lp2804
V76561198389497944
p2805
aI28
a(lp2806
I433850
aa(lp2807
aa(lp2808
V76561198385902500
p2809
aI0
a(lp2810
ag2807
aa(lp2811
V76561198198745069
p2812
aI5
a(lp2813
I227300
aI304930
aI730
aa(lp2814
aa(lp2815
V76561198108422182
p2816
aI18
a(lp2817
I550
aI43110
aI730
aI204100
aI227300
aI218620
aa(lp2818
I570
aaa(lp2819
V76561198265053636
p2820
aI0
a(lp2821
ag2818
aa(lp2822
V76561198202798947
p2823
aI1
a(lp2824
I730
aa(lp2825
aa(lp2826
V76561197963335399
p2827
aI60
a(lp2828
I10
aI285010
aI351030
aI314700
aI329950
aI344750
aI350810
aI331710
aI354850
aI368900
aI382120
aI383030
aI385200
aI395980
aI410590
aI432150
aI392050
aI392870
aI397620
aI416270
aI460660
aI431270
aI447880
aI462370
aI516700
aI449630
aI457930
aI457940
aI505440
aI467370
aI473580
aI473630
aI473650
aI485310
aI516230
aI522570
aI546450
aI554530
aI559500
aI562270
aI575490
aI581620
aI595340
aa(lp2829
aa(lp2830
V76561198381832757
p2831
aI1
a(lp2832
I730
aa(lp2833
aa(lp2834
V76561198370259804
p2835
aI4
a(lp2836
I730
aa(lp2837
I570
aaa(lp2838
V76561198348400793
p2839
aI10
a(lp2840
I730
aI536930
aI616560
aa(lp2841
I570
aaa(lp2842
V76561198353360641
p2843
aI1
a(lp2844
I730
aa(lp2845
aa(lp2846
V76561198306690630
p2847
aI12
a(lp2848
I227300
aI286940
aI321040
aI730
aI389570
aI280790
aI444090
aI513000
aa(lp2849
I440
aaa(lp2850
V76561198124671489
p2851
aI119
a(lp2852
I204300
aI204360
aI236390
aI263500
aI242760
aI220
aI550
aI730
aI207140
aI368730
aI218620
aI219640
aI261030
aI263980
aI271590
aI295110
aI296470
aI301520
aI304050
aI304930
aI273500
aI314020
aI332500
aI346110
aI363970
aI322330
aI352460
aI427730
aI444090
aa(lp2853
I570
aaa(lp2854
V76561198372782644
p2855
aI4
a(lp2856
I433850
aI578080
aa(lp2857
aa(lp2858
V76561198529634190
p2859
aI2
a(lp2860
I227300
aI271590
aa(lp2861
aa(lp2862
V76561198377305526
p2863
aI4
a(lp2864
I730
aa(lp2865
I570
aaa(lp2866
V76561198367173928
p2867
aI0
a(lp2868
ag2865
aa(lp2869
V76561198002949234
p2870
aI36
a(lp2871
I10
aI80
aI240
aI300
aI550
aI620
aI41070
aI108800
aI730
aI203140
aI8870
aI44350
aI237110
aI218620
aI223670
aI307780
aa(lp2872
I440
aaa(lp2873
V76561198135950315
p2874
aI12
a(lp2875
I730
aI230410
aI291480
aa(lp2876
aa(lp2877
V76561198335345107
p2878
aI23
a(lp2879
I227300
aI224260
aI304930
aI730
aI459510
aI532110
aI541180
aa(lp2880
aa(lp2881
V76561198385403729
p2882
aI8
a(lp2883
I730
aI444090
aa(lp2884
aa(lp2885
V76561198330389672
p2886
aI4
a(lp2887
I550
aI730
aa(lp2888
I570
aaa(lp2889
V76561198184285230
p2890
aI72
a(lp2891
I730
aI253710
aI263060
aI286940
aI301520
aI304930
aI331710
aI354850
aI368900
aI432150
aI333930
aI344750
aI380600
aI382120
aI398680
aI314700
aI383030
aI388870
aI392050
aI392870
aI407730
aI407740
aI407750
aI457940
aI473630
aI473640
aI491250
aI406090
aI407250
aI397620
aI416270
aI460660
aI424280
aI443940
aI449140
aI467370
aI485310
aI488210
aI489220
aI273350
aI503820
aI447880
aI462370
aI516700
aI489520
aI576440
aI581620
aI595340
aa(lp2892
I440
aI570
aaa(lp2893
V76561198374306299
p2894
aI10
a(lp2895
I398710
aI433850
aa(lp2896
aa(lp2897
V76561198385173909
p2898
aI2
a(lp2899
I433850
aa(lp2900
aa(lp2901
V76561198382489164
p2902
aI3
a(lp2903
I227300
aI244210
aI730
aa(lp2904
aa(lp2905
V76561198262997980
p2906
aI5
a(lp2907
I291480
aI730
aa(lp2908
aa(lp2909
V76561198316109167
p2910
aI4
a(lp2911
I730
aI444090
aa(lp2912
aa(lp2913
V76561198335992312
p2914
aI13
a(lp2915
I252950
aI271590
aI301520
aI730
aI333930
aa(lp2916
I440
aI570
aaa(lp2917
V76561198383471651
p2918
aI2
a(lp2919
I730
aI541180
aa(lp2920
aa(lp2921
V76561198196978690
p2922
aI6
a(lp2923
I218620
aI252950
aI304050
aI730
aa(lp2924
I570
aaa(lp2925
V76561198317746963
p2926
aI11
a(lp2927
I730
aI271590
aI299740
aI433850
aI578080
aa(lp2928
aa.