(lp0
(lp1
V76561198163319761
p2
aI68
a(lp3
I33230
aI20920
aI203160
aI219740
aI260230
aI271590
aI294860
aI238460
aI48720
aI730
aI333930
aI290340
aI413150
aI368500
aI431960
aI365590
aI403640
aI495910
aI539730
aI542970
aI553640
aa(lp4
I570
aaa(lp5
V76561198342890200
p6
aI0
a(lp7
ag4
aa(lp8
V76561198316181954
p9
aI20
a(lp10
I253710
aI251570
aI252490
aI302830
aI304930
aI730
aI291550
aI378370
aI466910
aa(lp11
aa(lp12
V76561198386361824
p13
aI1
a(lp14
I730
aa(lp15
aa(lp16
V76561198314590115
p17
aI2
a(lp18
I433850
aa(lp19
aa(lp20
V76561198349730538
p21
aI6
a(lp22
I271590
aI730
aI359550
aa(lp23
aa(lp24
V76561198374339685
p25
aI0
a(lp26
ag23
aa(lp27
V76561198297207434
p28
aI0
a(lp29
ag23
aa(lp30
V76561198258807252
p31
aI16
a(lp32
I246280
aI301520
aI302830
aI304050
aI304930
aI730
aa(lp33
I440
aI570
aaa(lp34
V76561198116407909
p35
aI50
a(lp36
I4000
aI35700
aI55230
aI41070
aI91600
aI200170
aI218740
aI201790
aI227300
aI8870
aI35720
aI49520
aI209170
aI42910
aI550
aI730
aI355840
aI370240
aI322330
aI433850
aa(lp37
I570
aI259080
aaa(lp38
V76561198336378521
p39
aI12
a(lp40
I230410
aI250320
aI730
aI339610
aI444090
aI555570
aa(lp41
I440
aaa(lp42
V76561198112753556
p43
aI103
a(lp44
I240
aI4000
aI12840
aI22600
aI21100
aI202170
aI730
aI203140
aI219640
aI204100
aI113400
aI271290
aI226700
aI12210
aI12220
aI107410
aI207140
aI218620
aI206420
aI222880
aI252490
aI252950
aI243450
aI227300
aI209160
aI209170
aI270850
aI44320
aI282660
aI287700
aI35450
aI245490
aI339610
aI271590
aI225540
aI427730
aa(lp45
I570
aaa(lp46
V76561198264216563
p47
aI5
a(lp48
I304930
aI730
aI444090
aa(lp49
I440
aaa(lp50
V76561198300430757
p51
aI89
a(lp52
I10
aI70
aI4000
aI12210
aI550
aI8190
aI24240
aI227300
aI209000
aI299720
aI311870
aI327680
aI730
aI340830
aI349500
aI357290
aI374830
aI331710
aI354850
aI397500
aI368900
aI385200
aI395980
aI397620
aI410590
aI416270
aI431270
aI432150
aI357070
aI448780
aI459510
aI460960
aI488200
aI533710
aI574630
aI219640
aa(lp53
I259080
aaa(lp54
V76561198368497498
p55
aI3
a(lp56
I4000
aa(lp57
aa(lp58
V76561198055179307
p59
aI5
a(lp60
I105600
aI730
aa(lp61
aa(lp62
V76561198108235478
p63
aI53
a(lp64
I205790
aI730
aI202970
aI202990
aI212910
aI72850
aI208090
aI230410
aI272350
aI218620
aI235600
aI206420
aI252490
aI550
aI239160
aI304050
aI304930
aI63380
aI260230
aI312990
aI24240
aI322330
aI8850
aI444090
aa(lp65
I440
aI570
aI259080
aaa(lp66
V76561198354647536
p67
aI23
a(lp68
I252950
aI273110
aI304050
aI312990
aI317360
aI730
aI333930
aI380600
aI280790
aI438040
aI506540
aa(lp69
I440
aI570
aaa(lp70
V76561198354401483
p71
aI14
a(lp72
I730
aI381210
aI422250
aI444090
aI489520
aI506540
aa(lp73
aa(lp74
V76561198347041690
p75
aI13
a(lp76
I730
aa(lp77
aa(lp78
V76561198158710836
p79
aI23
a(lp80
I236390
aI209870
aI271290
aI304930
aI227940
aI24240
aI730
aI333930
aI349700
aI391460
aI407250
aI433850
aI444090
aI555570
aI436520
aa(lp81
aa(lp82
V76561198254986192
p83
aI1
a(lp84
I730
aa(lp85
aa(lp86
V76561198067384609
p87
aI225
a(lp88
I220
aI4000
aI17410
aI41500
aI45700
aI35140
aI50620
aI40800
aI47780
aI42910
aI620
aI105600
aI20920
aI107100
aI205790
aI105450
aI67370
aI22380
aI211420
aI207750
aI50650
aI730
aI35700
aI35720
aI200260
aI204360
aI49520
aI200710
aI205100
aI214560
aI4920
aI221260
aI203140
aI212480
aI220440
aI221380
aI238960
aI225260
aI203160
aI233450
aI72850
aI233270
aI236090
aI39140
aI234080
aI242550
aI218620
aI206420
aI250760
aI245170
aI233130
aI242700
aI261640
aI261760
aI265300
aI200510
aI283640
aI236430
aI274190
aI294860
aI289130
aI237930
aI247080
aI319910
aI214490
aI241930
aI323470
aI333930
aI250900
aI345820
aI307780
aI335300
aI367500
aI367520
aI381210
aI345180
aI351970
aI291550
aI340170
aI391540
aI364360
aI268500
aI428550
aI374320
aI15620
aI394230
aI379720
aI273350
aI489830
aI249050
aa(lp89
I440
aI570
aaa(lp90
V76561198381893509
p91
aI2
a(lp92
I433850
aa(lp93
aa(lp94
V76561198497333389
p95
aI1
a(lp96
I730
aa(lp97
aa(lp98
V76561198197505823
p99
aI16
a(lp100
I105600
aI208090
aI236390
aI218620
aI271590
aI301520
aI304930
aI730
aI444090
aa(lp101
I440
aI570
aaa(lp102
V76561198268738040
p103
aI4
a(lp104
I444090
aa(lp105
I570
aaa(lp106
V76561198282003545
p107
aI7
a(lp108
I730
aI265630
aI380600
aa(lp109
I440
aaa(lp110
V76561198315542141
p111
aI3
a(lp112
I730
aI459510
aa(lp113
aa(lp114
V76561198212753871
p115
aI207
a(lp116
I220
aI4000
aI550
aI39500
aI24240
aI72850
aI201700
aI219640
aI223470
aI99900
aI262410
aI34870
aI218620
aI265930
aI271590
aI48700
aI48720
aI298240
aI302830
aI304930
aI34830
aI206420
aI269210
aI314970
aI203160
aI10
aI80
aI240
aI730
aI335240
aI343780
aI346900
aI363970
aI368360
aI385770
aI389570
aI391460
aI414730
aI427730
aI444090
aI444640
aI378370
aI466910
aI273350
aI507010
aI513650
aI534500
aI555570
aa(lp117
I440
aI630
aaa(lp118
V76561198372372952
p119
aI2
a(lp120
I433850
aa(lp121
aa(lp122
V76561198379353844
p123
aI57
a(lp124
I304050
aI730
aI433850
aa(lp125
aa(lp126
V76561198276495595
p127
aI28
a(lp128
I12200
aI20920
aI227300
aI218620
aI12120
aI12210
aI271590
aI730
aI433850
aI487220
aa(lp129
I440
aaa(lp130
V76561198375131710
p131
aI5
a(lp132
I730
aI563560
aa(lp133
I570
aaa(lp134
V76561198272878390
p135
aI0
a(lp136
ag133
aa(lp137
V76561198383073485
p138
aI2
a(lp139
I433850
aa(lp140
aa(lp141
V76561198290238021
p142
aI43
a(lp143
I4000
aI550
aI242760
aI220240
aI218620
aI252490
aI242050
aI264710
aI271590
aI244450
aI273110
aI304930
aI730
aI325610
aI381210
aI414290
aI437220
aI444090
aa(lp144
I570
aaa(lp145
V76561198367047609
p146
aI1
a(lp147
I730
aa(lp148
aa(lp149
V76561198277974656
p150
aI17
a(lp151
I242760
aI218620
aI304930
aI730
aI332800
aI433850
aI466910
aI480490
aa(lp152
I440
aaa(lp153
V76561198335873375
p154
aI6
a(lp155
I251570
aI381210
aI433850
aI295110
aa(lp156
aa(lp157
V76561198369931207
p158
aI3
a(lp159
I433850
aa(lp160
aa(lp161
V76561198336527912
p162
aI9
a(lp163
I730
aI271590
aI359550
aI431960
aI433850
aI477160
aI219640
aa(lp164
aa(lp165
V76561198352394911
p166
aI4
a(lp167
I730
aa(lp168
I570
aaa(lp169
V76561198366354907
p170
aI2
a(lp171
I433850
aa(lp172
aa(lp173
V76561198455260905
p174
aI1
a(lp175
I730
aa(lp176
aa(lp177
V76561198359483286
p178
aI30
a(lp179
I730
aI433850
aI295110
aI362300
aa(lp180
aa(lp181
V76561198349206815
p182
aI6
a(lp183
I304930
aI291480
aI227940
aI730
aI506540
aa(lp184
aa(lp185
V76561198354075350
p186
aI3
a(lp187
I730
aI584980
aa(lp188
aa(lp189
V76561198376758133
p190
aI3
a(lp191
I730
aa(lp192
aa(lp193
V76561198369140167
p194
aI3
a(lp195
I4000
aI730
aa(lp196
aa(lp197
V76561198350360669
p198
aI5
a(lp199
I730
aI252490
aI433850
aa(lp200
aa(lp201
V76561198166903306
p202
aI44
a(lp203
I4000
aI550
aI105600
aI104900
aI221260
aI102700
aI104700
aI259020
aI242760
aI218620
aI209160
aI209170
aI286940
aI302830
aI304930
aI227940
aI317360
aI730
aI333930
aI346330
aI349700
aI298630
aI368360
aI322330
aI427730
aI434570
aI444090
aI273350
aI302590
aI588430
aa(lp204
I440
aI630
aaa(lp205
V76561198222866688
p206
aI26
a(lp207
I4000
aI6060
aI64000
aI65800
aI242760
aI108600
aI221100
aI286160
aI301520
aI304930
aI326460
aI730
aI388060
aI410900
aI416680
aI219740
aI588430
aa(lp208
I440
aaa(lp209
V76561198372989801
p210
aI2
a(lp211
I730
aa(lp212
aa(lp213
V76561198020973017
p214
aI57
a(lp215
I9450
aI15620
aI20570
aI10500
aI32470
aI56400
aI204880
aI47410
aI218230
aI72850
aI244850
aI252490
aI221100
aI251570
aI290300
aI33910
aI33930
aI224580
aI302830
aI9900
aI227940
aI323370
aI342200
aI316390
aI344760
aI346010
aI346110
aI349700
aI440900
aI310380
aI489830
aI558100
aI8500
aI285190
aI375230
aa(lp216
aa(lp217
V76561198162652378
p218
aI24
a(lp219
I42910
aI7520
aI200710
aI214510
aI241600
aI242760
aI218620
aI252490
aI252950
aI48700
aI48720
aI304930
aI730
aI335240
aI219740
aI322330
aI389430
aI349040
aI444090
aI550900
aa(lp220
I440
aaa(lp221
V76561198313883933
p222
aI17
a(lp223
I219640
aI227300
aI224260
aI218620
aI273110
aI222880
aI304930
aI730
aI433340
aI585030
aI588430
aa(lp224
aa(lp225
V76561198573352689
p226
aI4
a(lp227
I271590
aI730
aI433850
aa(lp228
aa(lp229
V76561198380435154
p230
aI3
a(lp231
I730
aI459510
aa(lp232
aa(lp233
V76561198139141542
p234
aI0
a(lp235
ag232
aa(lp236
V76561198386843539
p237
aI12
a(lp238
I433850
aa(lp239
aa(lp240
V76561198359484481
p241
aI6
a(lp242
I227940
aI730
aI444090
aI506540
aa(lp243
aa(lp244
V76561198308088376
p245
aI14
a(lp246
I291480
aI10
aI240
aI730
aI359550
aI436520
aa(lp247
aa(lp248
V76561198271716972
p249
aI52
a(lp250
I550
aI203160
aI242760
aI222940
aI252490
aI246620
aI322920
aI241930
aI730
aI218620
aI360170
aI433850
aI439700
aI290790
aI295110
aI578080
aa(lp251
I570
aaa(lp252
V76561198371210300
p253
aI2
a(lp254
I433850
aa(lp255
aa(lp256
V76561198224757876
p257
aI81
a(lp258
I113400
aI230410
aI243870
aI209870
aI253710
aI252330
aI301520
aI304050
aI224600
aI227700
aI291480
aI323370
aI238320
aI730
aI376570
aI291550
aI280790
aI436520
aI444090
aI555570
aa(lp259
I570
aaa(lp260
V76561198370059464
p261
aI6
a(lp262
I262410
aI227940
aI730
aI454350
aa(lp263
aa(lp264
V76561198723187083
p265
aI2
a(lp266
I433850
aa(lp267
aa(lp268
V76561198283322065
p269
aI18
a(lp270
I550
aI227300
aI255220
aI291480
aI730
aI444090
aI459510
aa(lp271
aa(lp272
V76561198299919946
p273
aI19
a(lp274
I286940
aI301520
aI304930
aI730
aI291550
aI444090
aI459510
aa(lp275
aa(lp276
V76561198365044985
p277
aI5
a(lp278
I304930
aI730
aI568810
aa(lp279
aa(lp280
V76561198192083682
p281
aI5
a(lp282
I304930
aI227940
aI730
aI444090
aa(lp283
aa(lp284
V76561198189901251
p285
aI48
a(lp286
I4000
aI550
aI208090
aI212070
aI263500
aI214420
aI232910
aI218620
aI252950
aI271590
aI301520
aI327890
aI274940
aI730
aI338180
aI388900
aI393420
aI299360
aI412470
aI444090
aI273350
aI402570
aI552100
aa(lp287
I440
aI570
aaa(lp288
V76561198380718523
p289
aI2
a(lp290
I433850
aa(lp291
aa(lp292
V76561198344682955
p293
aI5
a(lp294
I730
aI291550
aI444090
aa(lp295
aa(lp296
V76561198584352890
p297
aI0
a(lp298
ag295
aa(lp299
V76561198314532045
p300
aI6
a(lp301
I730
aI444090
aI459510
aa(lp302
I259080
aaa(lp303
V76561198062686445
p304
aI0
a(lp305
ag302
aa(lp306
V76561198363051761
p307
aI3
a(lp308
I730
aa(lp309
aa(lp310
V76561198207879623
p311
aI22
a(lp312
I105600
aI72850
aI206210
aI218620
aI252950
aI730
aI365660
aI291550
aI299360
aI555570
aI568810
aa(lp313
I440
aI17500
aI24200
aaa(lp314
V76561198317846935
p315
aI3
a(lp316
I323370
aa(lp317
I570
aaa(lp318
V76561198274992174
p319
aI6
a(lp320
I236390
aI271590
aI730
aa(lp321
aa(lp322
V76561198362017194
p323
aI12
a(lp324
I730
aI459510
aa(lp325
aa(lp326
V76561198378252185
p327
aI1
a(lp328
I730
aa(lp329
aa(lp330
V76561198370413339
p331
aI1
a(lp332
I730
aa(lp333
aa(lp334
V76561198266552217
p335
aI22
a(lp336
I105600
aI252490
aI222880
aI251570
aI301520
aI304930
aI227940
aI730
aI333930
aI339600
aI355840
aI381120
aI299360
aI407530
aI415860
aI420290
aI449140
aI273350
aI8500
aa(lp337
I440
aaa(lp338
V76561198334251296
p339
aI6
a(lp340
I730
aa(lp341
aa(lp342
V76561198381927883
p343
aI2
a(lp344
I433850
aa(lp345
aa(lp346
V76561198359910729
p347
aI8
a(lp348
I730
aa(lp349
aa(lp350
V76561198356069526
p351
aI6
a(lp352
I282660
aI227940
aI730
aa(lp353
I570
aaa(lp354
V76561198381816295
p355
aI3
a(lp356
I730
aa(lp357
aa(lp358
V76561198363831262
p359
aI0
a(lp360
ag357
aa(lp361
V76561198379913115
p362
aI2
a(lp363
I730
aa(lp364
I440
aaa(lp365
V76561198372723497
p366
aI11
a(lp367
I730
aa(lp368
aa(lp369
V76561198129519438
p370
aI0
a(lp371
ag368
aa(lp372
V76561198299927202
p373
aI0
a(lp374
ag368
aa(lp375
V76561198367458429
p376
aI3
a(lp377
I730
aa(lp378
aa(lp379
V76561198211734789
p380
aI4
a(lp381
I730
aI433850
aa(lp382
aa(lp383
V76561198098035078
p384
aI46
a(lp385
I10
aI4000
aI17390
aI24240
aI224340
aI218620
aI206420
aI252490
aI252950
aI271590
aI301520
aI730
aI387990
aI444090
aI488440
aI273350
aa(lp386
I440
aI570
aaa(lp387
V76561198380982258
p388
aI10
a(lp389
I252490
aI274920
aI730
aI578080
aa(lp390
I570
aaa(lp391
V76561198306889494
p392
aI4
a(lp393
I730
aI433850
aa(lp394
I570
aaa(lp395
V76561198308966404
p396
aI11
a(lp397
I291480
aI730
aI369200
aI291550
aa(lp398
I440
aaa(lp399
V76561198269017271
p400
aI37
a(lp401
I271590
aI301520
aI304050
aI304930
aI730
aI447040
aa(lp402
I440
aaa(lp403
V76561198343189094
p404
aI5
a(lp405
I730
aa(lp406
I570
aaa(lp407
V76561198377941097
p408
aI2
a(lp409
I433850
aa(lp410
aa(lp411
V76561198373743360
p412
aI12
a(lp413
I730
aI11020
aI304050
aa(lp414
aa(lp415
V76561198299137076
p416
aI5
a(lp417
I218620
aI730
aa(lp418
aa(lp419
V76561198370743267
p420
aI12
a(lp421
I4000
aI224260
aI730
aI444090
aa(lp422
I440
aaa(lp423
V76561198196376013
p424
aI9
a(lp425
I11020
aI34870
aI304930
aI730
aa(lp426
aa(lp427
V76561198256404106
p428
aI9
a(lp429
I227300
aI730
aa(lp430
aa(lp431
V76561198138990289
p432
aI0
a(lp433
ag430
aa(lp434
V76561198361231134
p435
aI2
a(lp436
I433850
aa(lp437
aa(lp438
V76561198109040003
p439
aI27
a(lp440
I4000
aI105600
aI252950
aI265930
aI251570
aI730
aa(lp441
aa(lp442
V76561198365156480
p443
aI2
a(lp444
I730
aI444200
aa(lp445
aa(lp446
V76561198313155391
p447
aI11
a(lp448
I730
aa(lp449
aa(lp450
V76561198160774289
p451
aI17
a(lp452
I304930
aI293500
aI730
aI555570
aa(lp453
I440
aI570
aaa(lp454
V76561198373126571
p455
aI31
a(lp456
I730
aI433850
aI295110
aa(lp457
aa(lp458
V76561198319563767
p459
aI0
a(lp460
ag457
aa(lp461
V76561198382951992
p462
aI2
a(lp463
I433850
aa(lp464
aa(lp465
V76561198078271523
p466
aI3
a(lp467
a(lp468
I570
aaa(lp469
V76561198383591836
p470
aI0
a(lp471
ag468
aa(lp472
V76561198356096260
p473
aI4
a(lp474
I730
aa(lp475
I440
aaa(lp476
V76561198346727857
p477
aI0
a(lp478
ag475
aa(lp479
V76561198203392997
p480
aI54
a(lp481
I204300
aI223470
aI200210
aI250050
aI273110
aI304930
aI307590
aI41300
aI730
aI335240
aI340540
aI349700
aI397100
aI438040
aI444090
aI273350
aI506540
aa(lp482
aa(lp483
V76561198114674118
p484
aI63
a(lp485
I4000
aI22370
aI43110
aI8980
aI32800
aI24240
aI41070
aI204340
aI204100
aI91310
aI226700
aI113420
aI208090
aI272350
aI224260
aI235340
aI216250
aI218620
aI273110
aI301520
aI304930
aI10
aI240
aI730
aI349700
aI280790
aI444200
aa(lp486
I440
aI570
aaa(lp487
V76561198211282156
p488
aI18
a(lp489
I4000
aI218620
aI304930
aI269210
aI730
aI291550
aI433850
aI444090
aI506540
aa(lp490
aa(lp491
V76561198362469326
p492
aI1
a(lp493
I730
aa(lp494
aa(lp495
V76561198379010651
p496
aI2
a(lp497
I433850
aa(lp498
aa(lp499
V76561198371289658
p500
aI2
a(lp501
I433850
aa(lp502
aa(lp503
V76561198286263315
p504
aI26
a(lp505
I242760
aI271590
aI252490
aI431960
aI433850
aI439700
aI295110
aI578080
aa(lp506
aa(lp507
V76561198586865470
p508
aI3
a(lp509
I730
aI219640
aa(lp510
aa(lp511
V76561198720476169
p512
aI7
a(lp513
I230410
aI730
aa(lp514
aa(lp515
V76561198138637040
p516
aI3
a(lp517
I218620
aI433850
aa(lp518
aa(lp519
V76561198086070964
p520
aI68
a(lp521
I550
aI620
aI105600
aI204360
aI200710
aI99900
aI230410
aI224260
aI49520
aI271590
aI304050
aI9900
aI269210
aI333930
aI363970
aI376570
aI291550
aI359550
aI438640
aI444090
aI495910
aI578080
aa(lp522
I570
aaa(lp523
V76561198464946652
p524
aI1
a(lp525
I730
aa(lp526
aa(lp527
V76561198163306776
p528
aI44
a(lp529
I10
aI4000
aI13520
aI105600
aI223470
aI224260
aI253710
aI43160
aI224540
aI218620
aI285900
aI302830
aI304930
aI322170
aI730
aI362680
aI322330
aI382140
aI298630
aI299360
aa(lp530
I440
aI570
aaa(lp531
V76561198377185242
p532
aI3
a(lp533
I433850
aI439700
aa(lp534
aa(lp535
V76561198388988532
p536
aI5
a(lp537
I730
aa(lp538
aa(lp539
V76561198253805779
p540
aI5
a(lp541
I730
aa(lp542
I440
aI570
aaa(lp543
V76561198093881037
p544
aI110
a(lp545
I240
aI300
aI4000
aI620
aI2400
aI730
aI204360
aI202990
aI212910
aI230410
aI218620
aI252490
aI252950
aI249870
aI262280
aI263060
aI273110
aI291210
aI298240
aI238460
aI301520
aI302830
aI304050
aI304930
aI291480
aI24240
aI339610
aI346900
aI354860
aI358080
aI363970
aI385770
aI291550
aI389570
aI391460
aI397620
aI416270
aI431270
aI406090
aI385200
aI395980
aI410590
aI432290
aI424280
aI351630
aI444090
aI447880
aI462370
aI516700
aI449220
aI466910
aI476480
aI485310
aI503820
aI522570
aI351030
aI535760
aI541370
aI546450
aI554530
aI555570
aI562270
aI586380
aI506540
aa(lp546
I440
aI259080
aaa(lp547
V76561198379900980
p548
aI1
a(lp549
I730
aa(lp550
aa(lp551
V76561198367204824
p552
aI8
a(lp553
I227300
aI252950
aI304930
aI730
aI444090
aa(lp554
aa(lp555
V76561198077385510
p556
aI69
a(lp557
I240
aI300
aI320
aI17390
aI550
aI10190
aI12220
aI33930
aI42700
aI42710
aI105600
aI42680
aI42690
aI55230
aI201510
aI63380
aI104900
aI49520
aI730
aI202990
aI212910
aI208480
aI227300
aI109600
aI113400
aI218230
aI230410
aI236390
aI206420
aI107410
aI264710
aI222880
aI225840
aI295110
aI433850
aI301520
aI304050
aI304930
aI227940
aI239140
aI333930
aI346110
aI385770
aI385890
aI386360
aI280790
aI427520
aI359550
aI588430
aa(lp558
I440
aaa(lp559
V76561198259997331
p560
aI81
a(lp561
I4000
aI400
aI500
aI17390
aI17440
aI24720
aI550
aI105600
aI212160
aI224260
aI282800
aI238460
aI304050
aI304930
aI730
aI250900
aI339800
aI257400
aI383080
aI422970
aI434370
aI459820
aI466910
aI533780
aa(lp562
I440
aaa(lp563
V76561198343479807
p564
aI3
a(lp565
I730
aa(lp566
aa(lp567
V76561198262338929
p568
aI2
a(lp569
I730
aa(lp570
aa(lp571
V76561198291142037
p572
aI0
a(lp573
ag570
aa(lp574
V76561198357808012
p575
aI2
a(lp576
a(lp577
I570
aaa(lp578
V76561197969767382
p579
aI13
a(lp580
I240
aI730
aa(lp581
I570
aaa(lp582
V76561198287456143
p583
aI31
a(lp584
I349700
aI433850
aI555570
aa(lp585
aa(lp586
V76561198020477763
p587
aI154
a(lp588
I130
aI4000
aI9460
aI15120
aI500
aI16720
aI550
aI24960
aI400
aI41010
aI42500
aI33930
aI620
aI22350
aI49520
aI219640
aI227300
aI113400
aI218230
aI236390
aI238960
aI265630
aI227100
aI242760
aI242860
aI218620
aI252950
aI259620
aI273110
aI222880
aI285900
aI286940
aI304930
aI227940
aI322170
aI730
aI391460
aI236110
aI311210
aI433850
aI444090
aI513000
aI436520
aI506540
aa(lp589
I440
aaa(lp590
V76561198367332255
p591
aI2
a(lp592
I433850
aa(lp593
aa(lp594
V76561198318974261
p595
aI15
a(lp596
I252490
aI730
aI357290
aI440760
aI319630
aa(lp597
aa(lp598
V76561198325177135
p599
aI1
a(lp600
I730
aa(lp601
aa(lp602
V76561198384583735
p603
aI1
a(lp604
I730
aa(lp605
aa(lp606
V76561198374703963
p607
aI2
a(lp608
I433850
aa(lp609
aa(lp610
V76561198374703961
p611
aI2
a(lp612
I433850
aa(lp613
aa(lp614
V76561198220210841
p615
aI105
a(lp616
I10
aI12110
aI252950
aI252150
aI314700
aI327680
aI730
aI344750
aI357070
aI383030
aI392050
aI385200
aI395980
aI410590
aI413680
aI397620
aI416270
aI431270
aI427820
aI460660
aI368900
aI432150
aI447880
aI462370
aI516700
aI457930
aI457940
aI505440
aI467370
aI473580
aI473630
aI473640
aI473650
aI50130
aI485310
aI486340
aI489220
aI491250
aI319630
aI533300
aI351030
aI546450
aI547960
aI554530
aI562270
aI575490
aI581620
aI582280
aI585830
aI351940
aI595340
aI610360
aI489520
aa(lp617
aa(lp618
V76561198254040512
p619
aI1
a(lp620
I730
aa(lp621
aa(lp622
V76561198378147229
p623
aI2
a(lp624
I730
aa(lp625
I570
aaa(lp626
V76561198377631159
p627
aI2
a(lp628
I730
aa(lp629
aa(lp630
V76561198387223288
p631
aI2
a(lp632
I730
aI325610
aa(lp633
aa(lp634
V76561198314714737
p635
aI26
a(lp636
I4000
aI500
aI281920
aI313830
aI730
aI351150
aI353550
aa(lp637
aa(lp638
V76561198093279304
p639
aI8
a(lp640
I4000
aI620
aI730
aI304930
aa(lp641
I440
aI570
aaa(lp642
V76561198386584413
p643
aI3
a(lp644
I730
aa(lp645
aa(lp646
V76561198383820147
p647
aI7
a(lp648
I513650
aI562010
aa(lp649
aa(lp650
V76561198370813197
p651
aI3
a(lp652
I433850
aa(lp653
aa(lp654
V76561198168750075
p655
aI2
a(lp656
a(lp657
I570
aaa(lp658
V76561198285656068
p659
aI0
a(lp660
ag657
aa(lp661
V76561198372324989
p662
aI1
a(lp663
I730
aa(lp664
aa(lp665
V76561198376414897
p666
aI1
a(lp667
I730
aa(lp668
aa(lp669
V76561198374528524
p670
aI32
a(lp671
I433850
aI374040
aa(lp672
aa(lp673
V76561198354269192
p674
aI4
a(lp675
I730
aa(lp676
aa(lp677
V76561198377992747
p678
aI2
a(lp679
I433850
aa(lp680
aa(lp681
V76561198352739840
p682
aI5
a(lp683
I433850
aI534500
aa(lp684
aa(lp685
V76561198216293515
p686
aI37
a(lp687
I105600
aI208090
aI236390
aI224260
aI225840
aI301520
aI304930
aI291480
aI730
aI335240
aI355180
aI322330
aI291550
aI427730
aI444090
aI449140
aI459510
aI375600
aa(lp688
aa(lp689
V76561198252996197
p690
aI9
a(lp691
I550
aI227300
aI304930
aI730
aI550900
aa(lp692
aa(lp693
V76561198326791677
p694
aI0
a(lp695
ag692
aa(lp696
V76561198384378935
p697
aI1
a(lp698
I730
aa(lp699
aa(lp700
V76561198384446649
p701
aI2
a(lp702
I433850
aa(lp703
aa(lp704
V76561198152659079
p705
aI70
a(lp706
I620
aI105600
aI204100
aI218230
aI236390
aI233450
aI220200
aI400
aI550
aI730
aI218620
aI252490
aI264710
aI271590
aI285900
aI301520
aI302830
aI243470
aI304930
aI227940
aI333930
aI346110
aI209650
aI209660
aI255710
aI365450
aI387990
aI397340
aI311210
aI359550
aI427730
aI437220
aI375600
aI379720
aI584210
aa(lp707
I440
aaa(lp708
V76561198011331547
p709
aI9
a(lp710
I500
aI105450
aI91310
aI730
aa(lp711
I570
aaa(lp712
V76561198302668658
p713
aI97
a(lp714
I4000
aI10090
aI9200
aI730
aI12120
aI109600
aI236390
aI242760
aI251570
aI252490
aI252950
aI107410
aI264710
aI269170
aI271590
aI285900
aI304030
aI304930
aI322500
aI337320
aI230290
aI346110
aI232090
aI380220
aI291550
aI393420
aI331600
aI407060
aI412740
aI280790
aI418650
aI420290
aI425720
aI431240
aI424280
aI434570
aI440630
aI444090
aI446620
aI448280
aI450390
aI450540
aI455440
aI377160
aI468700
aI471710
aI496240
aI449800
aI530120
aI292730
aI578080
aI543460
aa(lp715
aa(lp716
V76561198305189221
p717
aI8
a(lp718
I252950
aI271590
aI730
aI291550
aI444090
aa(lp719
aa(lp720
V76561198288157744
p721
aI19
a(lp722
I227940
aI730
aI280790
aI444090
aI436520
aI506540
aa(lp723
aa(lp724
V76561198382455393
p725
aI2
a(lp726
I730
aa(lp727
aa(lp728
V76561198277394401
p729
aI12
a(lp730
I10
aI242760
aI730
aa(lp731
aa(lp732
V76561198282984432
p733
aI61
a(lp734
I550
aI24240
aI227300
aI218620
aI301520
aI304930
aI730
aI459510
aI545110
aa(lp735
I24200
aaa(lp736
V76561198209393804
p737
aI0
a(lp738
ag735
aa(lp739
V76561198373634624
p740
aI5
a(lp741
I433850
aI295110
aa(lp742
aa(lp743
V76561198239666946
p744
aI3
a(lp745
I335240
aa(lp746
I570
aaa(lp747
V76561198274667986
p748
aI9
a(lp749
I227940
aI730
aI380600
aI291550
aa(lp750
aa(lp751
V76561198368276922
p752
aI2
a(lp753
I433850
aa(lp754
aa(lp755
V76561198323300770
p756
aI9
a(lp757
I730
aI513000
aa(lp758
I440
aaa(lp759
V76561198209204051
p760
aI3
a(lp761
I252950
aI730
aa(lp762
I570
aaa(lp763
V76561198263395239
p764
aI47
a(lp765
I10
aI30
aI227300
aI239220
aI282660
aI331710
aI354850
aI368900
aI432150
aI334040
aI355180
aI363970
aI389570
aI394540
aI461140
aI485580
aI485610
aI508670
aa(lp766
I570
aaa(lp767
V76561198377226609
p768
aI1
a(lp769
I730
aa(lp770
aa(lp771
V76561198322719560
p772
aI7
a(lp773
I433850
aI295110
aa(lp774
aa(lp775
V76561198090168758
p776
aI21
a(lp777
I10190
aI730
aI220240
aI109600
aI218620
aI311210
aI236110
aI444090
aI292730
aI393100
aa(lp778
I440
aaa(lp779
V76561198083652775
p780
aI13
a(lp781
I226700
aI730
aI421960
aI436150
aI588430
aI219640
aa(lp782
I570
aaa(lp783
V76561198192782325
p784
aI30
a(lp785
I286940
aI227940
aI730
aI338180
aI390670
aI393420
aI529840
aI444200
aa(lp786
I440
aI570
aaa(lp787
V76561198380815717
p788
aI26
a(lp789
I730
aa(lp790
aa(lp791
V76561198319735664
p792
aI25
a(lp793
I230410
aI236390
aI209870
aI223710
aI252950
aI291480
aI312990
aI227940
aI320240
aI730
aI333930
aI346330
aI424840
aI444090
aa(lp794
I440
aaa(lp795
V76561198377316790
p796
aI8
a(lp797
I730
aI459510
aa(lp798
aa(lp799
V76561198161405036
p800
aI101
a(lp801
I4000
aI550
aI242760
aI218620
aI251570
aI49520
aI271590
aI304930
aI312530
aI289650
aI339600
aI730
aI322330
aI381210
aI389570
aI393420
aI359550
aI433850
aI273350
aI466240
aI578080
aa(lp802
I570
aaa(lp803
V76561197967990480
p804
aI11
a(lp805
I10
aI207890
aI730
aa(lp806
aa(lp807
V76561197965954024
p808
aI25
a(lp809
I10
aI240
aI500
aI10180
aI10190
aI550
aI42700
aI42710
aI42680
aI42690
aI730
aI578080
aa(lp810
I440
aI630
aaa(lp811
V76561198367907901
p812
aI1
a(lp813
I730
aa(lp814
aa(lp815
V76561198333046905
p816
aI5
a(lp817
I730
aI335240
aI444090
aa(lp818
aa(lp819
V76561198330668259
p820
aI0
a(lp821
ag818
aa(lp822
V76561198254461801
p823
aI2
a(lp824
I730
aa(lp825
aa(lp826
V76561198377728983
p827
aI3
a(lp828
I304930
aI730
aa(lp829
aa(lp830
V76561198026056856
p831
aI31
a(lp832
I730
aI331790
aI340650
aI385070
aI385080
aI391660
aI412170
aI423710
aI438010
aI438030
aI444480
aI448640
aI453820
aI454890
aI457820
aI461890
aI463210
aI463220
aI467000
aI467010
aI473470
aI486150
aI491650
aI533820
aI563120
aa(lp833
aa(lp834
V76561198340413674
p835
aI24
a(lp836
I230410
aI301520
aI323370
aI730
aI291550
aI444090
aI558100
aa(lp837
aa(lp838
V76561198373451624
p839
aI10
a(lp840
I214420
aI304930
aI291480
aI312990
aI730
aI444200
aa(lp841
I440
aaa(lp842
V76561197987581539
p843
aI45
a(lp844
I10
aI240
aI10180
aI10190
aI34330
aI57970
aI230410
aI291410
aI301520
aI304930
aI730
aI218620
aI252490
aI380600
aI291550
aI444090
aI588430
aa(lp845
I17500
aaa(lp846
V76561198359722201
p847
aI3
a(lp848
I730
aI359550
aa(lp849
aa(lp850
V76561198111713655
p851
aI5
a(lp852
a(lp853
I570
aaa(lp854
V76561198249935298
p855
aI1
a(lp856
I730
aa(lp857
aa(lp858
V76561198372775858
p859
aI2
a(lp860
I433850
aa(lp861
aa(lp862
V76561198255704978
p863
aI138
a(lp864
I70
aI4000
aI12100
aI10500
aI550
aI12220
aI47870
aI104200
aI92100
aI223470
aI227300
aI224220
aI242760
aI239030
aI218620
aI252950
aI260750
aI260770
aI12120
aI12210
aI271590
aI22100
aI48700
aI48720
aI246620
aI285010
aI351030
aI299720
aI304930
aI314450
aI321040
aI331710
aI354850
aI368900
aI432150
aI730
aI333740
aI344910
aI349500
aI351490
aI359050
aI397620
aI274560
aI377290
aI381210
aI391420
aI391260
aI397500
aI407230
aI385200
aI395980
aI410590
aI416080
aI418070
aI416270
aI431270
aI429470
aI427730
aI460660
aI431710
aI434250
aI439250
aI440760
aI446640
aI447880
aI462370
aI516700
aI449630
aI454180
aI459510
aI460960
aI207140
aI485310
aI492240
aI501690
aI505440
aI506500
aI508670
aI528210
aI533640
aI533710
aI546450
aI555750
aI559500
aI562270
aI566990
aI575490
aI463150
aI578080
aI581620
aI595340
aa(lp865
I259080
aaa(lp866
V76561198330007535
p867
aI4
a(lp868
I48000
aI730
aa(lp869
aa(lp870
V76561198380247990
p871
aI10
a(lp872
I113400
aI286940
aI730
aI9480
aa(lp873
aa(lp874
V76561198369735939
p875
aI2
a(lp876
I433850
aa(lp877
aa(lp878
V76561198004651544
p879
aI15
a(lp880
I240
aI300
aI550
aI234670
aI730
aa(lp881
I440
aaa(lp882
V76561198191099513
p883
aI11
a(lp884
I236390
aI730
aI444200
aa(lp885
I570
aaa(lp886
V76561198370151019
p887
aI3
a(lp888
I433850
aa(lp889
aa(lp890
V76561198337513823
p891
aI0
a(lp892
ag889
aa(lp893
V76561198078263072
p894
aI6
a(lp895
I730
aa(lp896
I570
aaa(lp897
V76561198079297226
p898
aI33
a(lp899
I4000
aI620
aI105600
aI218230
aI226320
aI238460
aI304930
aI8500
aI332310
aI346900
aI376570
aI377160
aI214490
aI427730
aI252950
aI578080
aa(lp900
aa(lp901
V76561198378221846
p902
aI1
a(lp903
I730
aa(lp904
aa(lp905
V76561198328480507
p906
aI9
a(lp907
I10
aI730
aa(lp908
aa(lp909
V76561198071680102
p910
aI4
a(lp911
I730
aI271590
aa(lp912
aa(lp913
V76561198368730553
p914
aI2
a(lp915
I433850
aa(lp916
aa(lp917
V76561198365882710
p918
aI3
a(lp919
I236390
aI730
aa(lp920
aa(lp921
V76561198259418988
p922
aI171
a(lp923
I4000
aI12210
aI227300
aI230410
aI236390
aI232010
aI10
aI240
aI730
aI258760
aI304930
aI313160
aI301910
aI444090
aI444200
aa(lp924
I440
aI570
aaa(lp925
V76561198379810969
p926
aI0
a(lp927
ag924
aa(lp928
V76561198380222309
p929
aI1
a(lp930
I730
aa(lp931
aa(lp932
V76561198382935898
p933
aI2
a(lp934
I433850
aa(lp935
aa(lp936
V76561198323828027
p937
aI9
a(lp938
I304930
aI730
aI444090
aI506540
aa(lp939
I570
aaa(lp940
V76561198366645697
p941
aI25
a(lp942
I224260
aI266010
aI304050
aI306040
aI730
aI357070
aI369370
aI418270
aI485450
aI521920
aI574630
aa(lp943
I570
aaa(lp944
V76561198383374918
p945
aI2
a(lp946
I433850
aa(lp947
aa(lp948
V76561198356656343
p949
aI17
a(lp950
I201700
aI248570
aI271590
aI282660
aI730
aI335240
aI444090
aa(lp951
I570
aaa(lp952
V76561198367265837
p953
aI9
a(lp954
I42690
aI321040
aI730
aI252490
aI444090
aa(lp955
I570
aaa(lp956
V76561198255270963
p957
aI0
a(lp958
ag955
aa(lp959
V76561198355035764
p960
aI24
a(lp961
I12120
aI218620
aI730
aI291550
aI427730
aI449550
aI541180
aa(lp962
aa(lp963
V76561198284142162
p964
aI9
a(lp965
I271590
aI730
aI291550
aI280790
aa(lp966
aa(lp967
V76561198384455652
p968
aI0
a(lp969
ag966
aa(lp970
V76561198369757716
p971
aI6
a(lp972
I222880
aI730
aI365670
aa(lp973
aa(lp974
V76561198362669806
p975
aI17
a(lp976
I304050
aI304930
aI227940
aI730
aI560260
aa(lp977
I440
aaa(lp978
V76561198275213428
p979
aI6
a(lp980
I10
aI730
aa(lp981
I570
aaa(lp982
V76561198143608516
p983
aI70
a(lp984
I10180
aI10190
aI42700
aI42710
aI32510
aI42680
aI42690
aI72850
aI47400
aI202990
aI212910
aI238960
aI209870
aI206420
aI290140
aI296470
aI209650
aI209660
aI241930
aI730
aI364420
aI381210
aI291550
aI234140
aI311210
aI433850
aI444090
aI377160
aI442080
aI292730
aI393080
aI393100
aI584210
aa(lp985
I440
aaa(lp986
V76561198382716650
p987
aI2
a(lp988
I433850
aa(lp989
aa(lp990
V76561198152637169
p991
aI95
a(lp992
I72850
aI230410
aI252490
aI252950
aI271590
aI298240
aI302830
aI304050
aI304930
aI730
aI350810
aI291550
aI457940
aI473620
aI473650
aI359550
aI431270
aI433850
aI444090
aI489520
aa(lp993
aa(lp994
V76561198207748149
p995
aI80
a(lp996
I4000
aI10090
aI550
aI42700
aI32800
aI72850
aI202990
aI212910
aI200210
aI252950
aI271590
aI286160
aI296470
aI304930
aI241930
aI326460
aI730
aI333930
aI339800
aI346110
aI407530
aI311210
aI322330
aI291550
aI234140
aI431240
aI431960
aI433850
aI244930
aI425220
aI273350
aI547820
aI302590
aa(lp997
I440
aaa(lp998
V76561198381288709
p999
aI1
a(lp1000
I730
aa(lp1001
aa(lp1002
V76561198376794557
p1003
aI4
a(lp1004
I433850
aI295110
aa(lp1005
aa(lp1006
V76561198102996865
p1007
aI28
a(lp1008
I4000
aI7940
aI10190
aI550
aI51100
aI236390
aI224260
aI265930
aI304930
aI730
aa(lp1009
I440
aI570
aaa(lp1010
V76561198345845708
p1011
aI1
a(lp1012
I730
aa(lp1013
aa(lp1014
V76561198239986666
p1015
aI3
a(lp1016
I730
aa(lp1017
I440
aaa(lp1018
V76561198151867227
p1019
aI10
a(lp1020
I10
aI240
aI730
aI444090
aa(lp1021
aa(lp1022
V76561198091102991
p1023
aI3
a(lp1024
I730
aI433850
aa(lp1025
aa(lp1026
V76561198388112356
p1027
aI2
a(lp1028
I433850
aa(lp1029
aa(lp1030
V76561198256249792
p1031
aI26
a(lp1032
I227300
aI730
aI433850
aa(lp1033
aa(lp1034
V76561198378057053
p1035
aI2
a(lp1036
I433850
aa(lp1037
aa(lp1038
V76561198372381115
p1039
aI5
a(lp1040
I730
aa(lp1041
aa(lp1042
V76561198330984801
p1043
aI13
a(lp1044
I236390
aI218620
aI730
aI381210
aI444090
aa(lp1045
I570
aaa(lp1046
V76561198275897505
p1047
aI18
a(lp1048
I550
aI32470
aI218620
aI301520
aI730
aI386940
aI291550
aI252950
aI280790
aI444090
aa(lp1049
I440
aaa(lp1050
V76561197988719186
p1051
aI83
a(lp1052
I10
aI4000
aI17410
aI24240
aI104700
aI236390
aI272350
aI224260
aI286940
aI293540
aI298240
aI301520
aI304930
aI291480
aI227940
aI328060
aI730
aI335240
aI339610
aI346900
aI342480
aI356130
aI356640
aI291550
aI389570
aI393410
aI299360
aI444090
aa(lp1053
I440
aaa(lp1054
V76561198209367033
p1055
aI7
a(lp1056
a(lp1057
I570
aaa(lp1058
V76561198169139052
p1059
aI70
a(lp1060
I33910
aI33930
aI730
aI236390
aI107410
aI221100
aI222880
aI295110
aI433850
aI271590
aI393420
aI431960
aI437220
aI393380
aI578080
aa(lp1061
aa(lp1062
V76561198345023368
p1063
aI2
a(lp1064
I433850
aa(lp1065
aa(lp1066
V76561198375531559
p1067
aI2
a(lp1068
I433850
aa(lp1069
aa(lp1070
V76561198329205189
p1071
aI14
a(lp1072
I4000
aI620
aI227300
aI730
aI291550
aI459510
aI591960
aa(lp1073
I440
aaa(lp1074
V76561198170542217
p1075
aI8
a(lp1076
I4000
aI227300
aI730
aI431960
aI444090
aa(lp1077
aa(lp1078
V76561198089588275
p1079
aI126
a(lp1080
I4000
aI400
aI19980
aI26800
aI17390
aI17440
aI550
aI37000
aI33230
aI8190
aI70300
aI50620
aI40800
aI48190
aI620
aI105600
aI113200
aI72850
aI204360
aI205100
aI219890
aI36630
aI231060
aI238960
aI256410
aI233470
aI228300
aI222730
aI12120
aI12210
aI224540
aI245170
aI42910
aI210770
aI246620
aI238460
aI8980
aI49520
aI206420
aI312280
aI312990
aI318530
aI319510
aI323370
aI241930
aI730
aI250900
aI319630
aI236430
aI301910
aI346900
aI354240
aI7670
aI8870
aI297130
aI261640
aI360740
aI238370
aI391540
aI489830
aa(lp1081
I440
aI259080
aaa(lp1082
V76561198562129395
p1083
aI49
a(lp1084
I10
aI100
aI730
aI345920
aI365300
aI562010
aI436520
aI506540
aI9480
aa(lp1085
I440
aI570
aaa(lp1086
V76561198271241279
p1087
aI0
a(lp1088
ag1085
aa(lp1089
V76561198366120611
p1090
aI2
a(lp1091
I730
aa(lp1092
aa(lp1093
V76561198357942007
p1094
aI4
a(lp1095
I730
aI431240
aa(lp1096
aa(lp1097
V76561198582233441
p1098
aI28
a(lp1099
I550
aI236390
aI262410
aI218620
aI206420
aI281920
aI304930
aI730
aI299360
aI468250
aI564710
aa(lp1100
aa(lp1101
V76561198379031991
p1102
aI2
a(lp1103
I433850
aa(lp1104
aa(lp1105
V76561198321181532
p1106
aI16
a(lp1107
I100
aI550
aI243870
aI242720
aI730
aa(lp1108
I570
aaa(lp1109
V76561198170412150
p1110
aI158
a(lp1111
I70100
aI105450
aI265630
aI224220
aI251910
aI252490
aI238910
aI263060
aI279720
aI285070
aI293180
aI304930
aI306410
aI307070
aI314700
aI321040
aI321400
aI329950
aI331710
aI354850
aI368900
aI432150
aI730
aI10
aI240
aI334070
aI277950
aI339470
aI343360
aI344750
aI348020
aI366760
aI373110
aI382120
aI383030
aI291550
aI388870
aI389570
aI392050
aI392870
aI385200
aI395980
aI410590
aI397620
aI431270
aI400240
aI299360
aI407750
aI280790
aI460660
aI422100
aI422250
aI433350
aI434250
aI444090
aI447850
aI447880
aI462370
aI516700
aI449630
aI454930
aI457930
aI457940
aI462060
aI463520
aI466910
aI473580
aI473620
aI473630
aI473640
aI473650
aI473710
aI476480
aI485310
aI486340
aI487220
aI48000
aI491250
aI503820
aI513650
aI520530
aI522570
aI526790
aI541370
aI546450
aI547960
aI559500
aI252850
aI562270
aI563560
aI568810
aI575490
aI576440
aI576470
aI463150
aI581620
aI586380
aI375230
aI219640
aI9480
aa(lp1112
I440
aI570
aaa(lp1113
V76561198372864229
p1114
aI2
a(lp1115
I433850
aa(lp1116
aa(lp1117
V76561198377361906
p1118
aI2
a(lp1119
I730
aa(lp1120
aa(lp1121
V76561198372240723
p1122
aI36
a(lp1123
I730
aI285010
aI331710
aI354850
aI368900
aI432150
aI350810
aI406090
aI447880
aI462370
aI516700
aI457940
aI397620
aI460660
aI505440
aI467370
aI485310
aI504490
aI516230
aI522570
aI554530
aI562270
aI575490
aI581620
aa(lp1124
aa(lp1125
V76561198338731194
p1126
aI6
a(lp1127
I227300
aI304930
aI730
aa(lp1128
aa(lp1129
V76561198100363650
p1130
aI32
a(lp1131
I228200
aI8930
aI105600
aI72850
aI730
aI47790
aI252490
aI252950
aI205100
aI304930
aI335300
aI374320
aI377160
aI504370
aI578080
aa(lp1132
aa(lp1133
V76561198384855314
p1134
aI1
a(lp1135
I730
aa(lp1136
aa(lp1137
V76561198722722950
p1138
aI2
a(lp1139
I433850
aa(lp1140
aa(lp1141
V76561198289466356
p1142
aI4
a(lp1143
I730
aI456610
aa(lp1144
aa(lp1145
V76561198373797850
p1146
aI2
a(lp1147
I433850
aa(lp1148
aa(lp1149
V76561198380613146
p1150
aI1
a(lp1151
I730
aa(lp1152
aa(lp1153
V76561198311686185
p1154
aI9
a(lp1155
I304930
aI730
aI459510
aa(lp1156
aa(lp1157
V76561198071741774
p1158
aI0
a(lp1159
ag1156
aa(lp1160
V76561198379988191
p1161
aI0
a(lp1162
ag1156
aa(lp1163
V76561198303463550
p1164
aI4
a(lp1165
I550
aI730
aa(lp1166
aa(lp1167
V76561198191803727
p1168
aI25
a(lp1169
I72850
aI278360
aI298240
aI304050
aI355180
aI291550
aI389570
aI444090
aa(lp1170
I440
aI570
aaa(lp1171
V76561198385744860
p1172
aI1
a(lp1173
I730
aa(lp1174
aa(lp1175
V76561198372348601
p1176
aI2
a(lp1177
I433850
aa(lp1178
aa(lp1179
V76561198375364257
p1180
aI0
a(lp1181
ag1178
aa(lp1182
V76561198091481337
p1183
aI0
a(lp1184
ag1178
aa(lp1185
V76561198333167069
p1186
aI4
a(lp1187
I227940
aI730
aa(lp1188
aa(lp1189
V76561198263284831
p1190
aI9
a(lp1191
I302830
aI730
aI335240
aa(lp1192
aa(lp1193
V76561198059857133
p1194
aI1759
a(lp1195
I10
aI4000
aI18300
aI41000
aI34270
aI40300
aI70100
aI70110
aI12210
aI7520
aI40800
aI42910
aI92800
aI104200
aI91200
aI92100
aI46500
aI46510
aI46540
aI107310
aI96100
aI107100
aI24240
aI3830
aI41070
aI207650
aI203630
aI204180
aI35140
aI214340
aI211050
aI209080
aI730
aI218640
aI222160
aI7510
aI57690
aI1900
aI1930
aI222140
aI209190
aI227300
aI204080
aI224220
aI203160
aI217200
aI219190
aI234940
aI200170
aI35450
aI233250
aI243280
aI228960
aI231020
aI244690
aI245150
aI40390
aI220
aI300
aI550
aI620
aI207140
aI368730
aI247020
aI239030
aI244590
aI244730
aI248330
aI248530
aI233840
aI250580
aI251530
aI251870
aI251910
aI252350
aI252950
aI253650
aI253900
aI253940
aI253980
aI243800
aI223220
aI246960
aI238910
aI233130
aI257830
aI258200
aI247000
aI259550
aI259740
aI259830
aI200260
aI249650
aI252150
aI261760
aI262080
aI262150
aI262280
aI263060
aI263360
aI263860
aI263980
aI264280
aI242700
aI264730
aI265120
aI265300
aI265330
aI265380
aI265930
aI266010
aI267920
aI267980
aI268240
aI268320
aI214870
aI269330
aI269890
aI270550
aI271240
aI271550
aI271640
aI273070
aI273500
aI273770
aI224480
aI222880
aI274560
aI274920
aI275080
aI275470
aI275490
aI277490
aI277500
aI277510
aI277520
aI278360
aI278460
aI279260
aI279440
aI279720
aI279800
aI280010
aI280040
aI280320
aI280640
aI281060
aI282880
aI283020
aI283290
aI283390
aI116100
aI284710
aI284730
aI284770
aI284790
aI284810
aI284850
aI284870
aI284890
aI284930
aI284950
aI351030
aI285010
aI285070
aI285090
aI285130
aI286040
aI286120
aI287120
aI287140
aI227560
aI288880
aI289090
aI290080
aI290650
aI291010
aI291130
aI291170
aI291390
aI292370
aI292380
aI292410
aI292570
aI271570
aI293180
aI293320
aI293600
aI294020
aI294040
aI294230
aI295110
aI433850
aI295690
aI296050
aI296870
aI297020
aI298520
aI298600
aI251210
aI299260
aI299440
aI299460
aI300360
aI300580
aI300760
aI301190
aI301200
aI219910
aI230820
aI243200
aI268540
aI286690
aI287390
aI301540
aI301750
aI302010
aI302120
aI303260
aI303390
aI303510
aI304170
aI305980
aI306040
aI306350
aI306410
aI306660
aI307070
aI307090
aI307230
aI307350
aI307600
aI308000
aI308040
aI310070
aI310700
aI310850
aI312600
aI312640
aI312960
aI313020
aI313140
aI314020
aI314250
aI314450
aI265590
aI314700
aI277950
aI314810
aI255070
aI315060
aI315430
aI248470
aI311250
aI315920
aI317250
aI317610
aI233720
aI318220
aI319180
aI319230
aI319740
aI319830
aI320150
aI320540
aI321040
aI321150
aI321360
aI321400
aI321920
aI321950
aI322500
aI322540
aI322970
aI323060
aI232890
aI323450
aI323850
aI272470
aI258970
aI325090
aI325370
aI326120
aI327410
aI327670
aI327680
aI327890
aI328500
aI328680
aI328940
aI329380
aI329950
aI330180
aI330270
aI330350
aI330820
aI331610
aI331710
aI354850
aI368900
aI432150
aI331720
aI331790
aI332360
aI332480
aI218620
aI332780
aI332790
aI333490
aI333740
aI334040
aI334070
aI334300
aI334560
aI334840
aI335430
aI336030
aI336090
aI336110
aI317440
aI337150
aI338050
aI338320
aI332530
aI339000
aI339160
aI2400
aI339190
aI319630
aI339290
aI339470
aI339590
aI219150
aI339860
aI340050
aI340070
aI333760
aI340300
aI340320
aI340470
aI340650
aI341070
aI341090
aI341120
aI341310
aI341500
aI340820
aI341980
aI342300
aI331760
aI336710
aI336730
aI343270
aI343280
aI343360
aI343390
aI344040
aI344130
aI344230
aI344300
aI344440
aI344500
aI344750
aI345120
aI345180
aI345220
aI345540
aI345750
aI346140
aI346560
aI346630
aI346950
aI347040
aI347430
aI347510
aI307780
aI347590
aI347610
aI347560
aI348020
aI348530
aI348870
aI349140
aI349500
aI349580
aI350010
aI351150
aI351250
aI351340
aI351470
aI351490
aI351720
aI351910
aI326950
aI352900
aI353070
aI274620
aI353550
aI353640
aI275100
aI354040
aI350810
aI350500
aI354860
aI355150
aI355810
aI355920
aI356070
aI356200
aI357120
aI356380
aI357280
aI357290
aI357490
aI357770
aI357780
aI357900
aI358080
aI338530
aI359050
aI359350
aI359580
aI359810
aI359960
aI360390
aI360590
aI360620
aI360640
aI360650
aI360890
aI360940
aI360950
aI360970
aI361190
aI361600
aI362610
aI362660
aI248610
aI363490
aI363510
aI363610
aI363620
aI363940
aI364050
aI364270
aI364480
aI364890
aI365020
aI365310
aI364690
aI366670
aI357070
aI366760
aI366890
aI367300
aI368370
aI368720
aI397620
aI368990
aI369040
aI247950
aI369290
aI369420
aI370040
aI370090
aI343100
aI370270
aI370510
aI370590
aI371100
aI371390
aI371510
aI371570
aI371670
aI371890
aI372210
aI372820
aI373110
aI373240
aI373360
aI373730
aI374830
aI374900
aI375460
aI375510
aI375620
aI375710
aI375930
aI376920
aI377310
aI377680
aI377970
aI378100
aI379290
aI380020
aI380580
aI381210
aI382080
aI382120
aI382260
aI382240
aI382300
aI383030
aI383330
aI383520
aI383560
aI383580
aI383750
aI383930
aI384150
aI384500
aI384740
aI384960
aI385070
aI385080
aI385200
aI395980
aI410590
aI385270
aI385490
aI385560
aI385710
aI385830
aI385860
aI386110
aI386160
aI386420
aI387060
aI387070
aI261570
aI387850
aI387930
aI388120
aI388360
aI388390
aI388420
aI388870
aI388960
aI389160
aI389310
aI389400
aI389810
aI389700
aI390970
aI391070
aI391160
aI391260
aI391310
aI391660
aI391740
aI391420
aI392050
aI392820
aI385240
aI392870
aI393230
aI394540
aI394680
aI394870
aI395170
aI395570
aI382490
aI396160
aI396360
aI396850
aI397060
aI397500
aI416270
aI431270
aI397700
aI397770
aI397980
aI398070
aI397870
aI397580
aI398180
aI398680
aI398710
aI398850
aI398920
aI399070
aI399270
aI399430
aI399580
aI399640
aI236110
aI399790
aI407740
aI407750
aI457930
aI457940
aI473580
aI473620
aI473630
aI473640
aI473650
aI486340
aI491250
aI516230
aI400240
aI400250
aI400370
aI400510
aI400630
aI400740
aI401810
aI402840
aI402850
aI369360
aI403560
aI403570
aI403900
aI403740
aI404770
aI405610
aI15700
aI405950
aI406080
aI406090
aI406310
aI406730
aI406870
aI406970
aI340310
aI371420
aI407230
aI407300
aI407840
aI407940
aI408750
aI409100
aI409370
aI409380
aI409560
aI410210
aI410560
aI411120
aI412130
aI412170
aI369200
aI412380
aI412600
aI414290
aI414580
aI415240
aI415350
aI415960
aI416020
aI416030
aI416080
aI416170
aI416310
aI416320
aI416350
aI236010
aI221380
aI417980
aI418070
aI414070
aI418120
aI418440
aI419500
aI419590
aI421040
aI421810
aI422100
aI422250
aI422650
aI423710
aI423760
aI423920
aI424000
aI424830
aI425300
aI426010
aI426170
aI427550
aI427780
aI427820
aI428630
aI428760
aI428830
aI428430
aI428950
aI428900
aI429470
aI429600
aI429610
aI429700
aI429780
aI431250
aI431260
aI431560
aI431710
aI432020
aI432470
aI251110
aI432610
aI391220
aI432950
aI433210
aI433790
aI433950
aI434010
aI434210
aI434250
aI434360
aI434420
aI434610
aI434650
aI434820
aI435040
aI435140
aI427980
aI435790
aI436360
aI264240
aI437090
aI437870
aI438010
aI438030
aI438080
aI438090
aI438180
aI439250
aI439910
aI439930
aI440340
aI440760
aI440790
aI441050
aI441870
aI443570
aI444220
aI444460
aI444480
aI444260
aI445170
aI446380
aI446640
aI447850
aI447860
aI447880
aI462370
aI516700
aI447890
aI447970
aI448000
aI448260
aI448400
aI448470
aI448640
aI448660
aI448780
aI448830
aI449200
aI449220
aI449520
aI449530
aI449630
aI449680
aI450030
aI450110
aI450190
aI448070
aI450850
aI451700
aI451830
aI451880
aI452320
aI452450
aI453100
aI453670
aI453820
aI453850
aI453980
aI454100
aI454200
aI454230
aI454420
aI454460
aI454670
aI454690
aI454890
aI454930
aI454970
aI455710
aI455940
aI455970
aI370770
aI456660
aI456690
aI456810
aI457480
aI382420
aI457710
aI457820
aI458420
aI458520
aI458900
aI460660
aI505440
aI461010
aI461140
aI461360
aI461490
aI461570
aI461640
aI461690
aI461840
aI462060
aI462130
aI462220
aI462030
aI322950
aI463040
aI463050
aI463100
aI463110
aI463180
aI463210
aI463220
aI463240
aI463350
aI463520
aI463550
aI463620
aI463930
aI464440
aI464760
aI465170
aI465760
aI466580
aI466730
aI466780
aI466790
aI466840
aI467000
aI467010
aI467090
aI365190
aI467370
aI467390
aI467530
aI368750
aI467950
aI468320
aI468490
aI468800
aI436500
aI469730
aI469890
aI469980
aI470270
aI471910
aI473140
aI473470
aI473480
aI473510
aI473520
aI473560
aI473670
aI473710
aI474050
aI474810
aI474820
aI474910
aI475220
aI475550
aI476480
aI477290
aI478010
aI479260
aI481600
aI482120
aI485220
aI485310
aI485330
aI485390
aI485410
aI485440
aI485450
aI485580
aI485620
aI485640
aI485660
aI485730
aI485740
aI485830
aI485870
aI485950
aI486150
aI486350
aI486360
aI486810
aI486820
aI486880
aI487030
aI487180
aI487220
aI487270
aI487350
aI487370
aI487580
aI487590
aI487600
aI487700
aI488580
aI489070
aI489220
aI327030
aI484950
aI489520
aI489890
aI489900
aI490820
aI490860
aI490910
aI490940
aI490980
aI491080
aI491170
aI491260
aI491330
aI491580
aI491620
aI491650
aI492130
aI492240
aI493650
aI493700
aI493710
aI493730
aI493980
aI495350
aI495570
aI495780
aI496500
aI496550
aI496600
aI496680
aI497050
aI497080
aI497260
aI498030
aI498040
aI498050
aI498660
aI499420
aI500570
aI500580
aI500590
aI500710
aI486480
aI501690
aI501800
aI501830
aI501930
aI502090
aI502140
aI502200
aI502380
aI502910
aI503710
aI503820
aI504490
aI504980
aI505210
aI506670
aI507050
aI507380
aI507390
aI507400
aI508170
aI508180
aI508290
aI508670
aI508950
aI508960
aI509000
aI509110
aI509220
aI509240
aI509840
aI509930
aI510330
aI511670
aI511750
aI512550
aI512640
aI512770
aI512300
aI513340
aI513510
aI513580
aI513610
aI513620
aI513780
aI513820
aI514220
aI514470
aI514480
aI514490
aI514660
aI514970
aI515310
aI515470
aI515690
aI515910
aI517660
aI518100
aI518800
aI520530
aI521100
aI521230
aI521280
aI521580
aI521630
aI521930
aI522490
aI522570
aI523790
aI524340
aI525190
aI526460
aI526540
aI526740
aI526790
aI526880
aI527480
aI527550
aI527750
aI527760
aI527770
aI527790
aI527810
aI528210
aI528300
aI528510
aI528660
aI529240
aI529950
aI530390
aI531240
aI531860
aI532600
aI533120
aI533150
aI533300
aI533320
aI533330
aI533640
aI533710
aI533820
aI534200
aI535690
aI535760
aI536420
aI536430
aI537090
aI537360
aI537700
aI538590
aI539380
aI539460
aI539750
aI540020
aI540310
aI540900
aI541370
aI537860
aI542340
aI542430
aI542690
aI542710
aI542720
aI542730
aI542740
aI543360
aI543420
aI544140
aI545280
aI545320
aI545590
aI545700
aI545950
aI546340
aI546400
aI546450
aI529760
aI546920
aI546980
aI546990
aI547960
aI548230
aI549900
aI551080
aI551110
aI553790
aI554530
aI555700
aI556110
aI556120
aI556160
aI526920
aI556280
aI557260
aI557580
aI557680
aI558620
aI559500
aI559940
aI252850
aI562240
aI562270
aI562430
aI562520
aI562570
aI562650
aI562670
aI562760
aI563120
aI563140
aI565200
aI566220
aI566290
aI565860
aI565340
aI567000
aI567280
aI567290
aI567580
aI567780
aI568720
aI569610
aI422870
aI574030
aI574620
aI574640
aI574810
aI575490
aI575700
aI575840
aI575920
aI576080
aI576440
aI576470
aI576560
aI576730
aI576880
aI577460
aI463150
aI580990
aI581000
aI581010
aI581030
aI581200
aI581350
aI581430
aI581610
aI581620
aI581640
aI581970
aI582280
aI582580
aI583490
aI583760
aI585560
aI585580
aI585720
aI585830
aI586380
aI586430
aI586480
aI586520
aI586530
aI586540
aI586620
aI586960
aI586970
aI587590
aI587810
aI588970
aI589390
aI375230
aI595340
aI595440
aI596590
aI600310
aI601530
aI603190
aI603750
aI603770
aI605470
aI606330
aI498320
aI610930
aI611980
aI598470
aI219640
aI615610
aI617710
aI618030
aI204300
aI236150
aa(lp1196
aa(lp1197
V76561198366166339
p1198
aI2
a(lp1199
I433850
aa(lp1200
aa(lp1201
V76561197999872738
p1202
aI8
a(lp1203
I301520
aI730
aI444090
aI436520
aa(lp1204
aa(lp1205
V76561198331238012
p1206
aI12
a(lp1207
I6860
aI12120
aI620
aI214420
aI271590
aI730
aI12210
aa(lp1208
aa(lp1209
V76561198351574882
p1210
aI2
a(lp1211
I730
aa(lp1212
aa(lp1213
V76561198335622159
p1214
aI11
a(lp1215
I227300
aI252950
aI271590
aI304050
aI730
aa(lp1216
aa(lp1217
V76561198250533746
p1218
aI15
a(lp1219
I4000
aI105600
aI109600
aI248570
aI302830
aI304930
aI730
aI427730
aa(lp1220
I570
aaa(lp1221
V76561198350419849
p1222
aI17
a(lp1223
I730
aI444090
aI530390
aa(lp1224
aa(lp1225
V76561198374700870
p1226
aI2
a(lp1227
I433850
aa(lp1228
aa(lp1229
V76561198218528591
p1230
aI29
a(lp1231
I321040
aI240
aI730
aI339280
aI386360
aa(lp1232
I570
aaa(lp1233
V76561198312034212
p1234
aI6
a(lp1235
I252490
aI730
aa(lp1236
aa(lp1237
V76561198375106418
p1238
aI4
a(lp1239
a(lp1240
I570
aaa(lp1241
V76561198167519211
p1242
aI64
a(lp1243
I17410
aI33910
aI33930
aI212500
aI218230
aI242720
aI224260
aI224580
aI34870
aI252330
aI238430
aI304050
aI304930
aI730
aI339610
aI346900
aI349700
aI355180
aI322330
aI291550
aI444090
aI319630
aI506540
aa(lp1244
I570
aaa(lp1245
V76561198383163515
p1246
aI1
a(lp1247
I730
aa(lp1248
aa(lp1249
V76561198138064285
p1250
aI111
a(lp1251
I70
aI91200
aI104900
aI730
aI220860
aI57690
aI242760
aI239450
aI252950
aI266010
aI271590
aI286940
aI294020
aI303390
aI304050
aI304930
aI63380
aI311870
aI291480
aI317250
aI321040
aI282070
aI363620
aI291550
aI388120
aI407250
aI428900
aI431960
aI368900
aI410590
aI432150
aI433850
aI437220
aI444090
aI447880
aI462370
aI516700
aI448660
aI207140
aI479260
aI359550
aI486820
aI508170
aI533150
aI533620
aI534500
aI547960
aI558620
aI562220
aI568650
aI422870
aI575640
aI581620
aI582430
aI219640
aa(lp1252
I440
aI570
aaa(lp1253
V76561198386746594
p1254
aI4
a(lp1255
I730
aa(lp1256
aa(lp1257
V76561198342661225
p1258
aI2
a(lp1259
I282660
aI730
aa(lp1260
aa(lp1261
V76561198252167760
p1262
aI2
a(lp1263
a(lp1264
I570
aaa(lp1265
V76561198346951199
p1266
aI8
a(lp1267
I730
aI381210
aI433850
aI444090
aI418370
aa(lp1268
aa(lp1269
V76561198098149908
p1270
aI19
a(lp1271
I33910
aI33930
aI219540
aI730
aI227300
aI271590
aI221380
aI239140
aI298110
aI234630
aa(lp1272
aa(lp1273
V76561198383873741
p1274
aI1
a(lp1275
I730
aa(lp1276
aa(lp1277
V76561198335443568
p1278
aI2
a(lp1279
I730
aa(lp1280
aa(lp1281
V76561198369619151
p1282
aI2
a(lp1283
I433850
aa(lp1284
aa(lp1285
V76561198314330420
p1286
aI7
a(lp1287
I252950
aI301520
aI730
aI480650
aa(lp1288
aa(lp1289
V76561198372214399
p1290
aI2
a(lp1291
I433850
aa(lp1292
aa(lp1293
V76561198318547973
p1294
aI5
a(lp1295
I730
aI444200
aa(lp1296
aa(lp1297
V76561198345600410
p1298
aI5
a(lp1299
I730
aa(lp1300
aa(lp1301
V76561198381097471
p1302
aI3
a(lp1303
I304930
aI227940
aI730
aa(lp1304
aa(lp1305
V76561198124979112
p1306
aI18
a(lp1307
I730
aI251170
aI271590
aI381210
aI359550
aI431960
aI433850
aI434650
aI437220
aI322330
aI546080
aI438740
aa(lp1308
I570
aaa(lp1309
V76561198278957685
p1310
aI5
a(lp1311
I209160
aI48700
aI730
aa(lp1312
aa(lp1313
V76561198729205747
p1314
aI1
a(lp1315
I730
aa(lp1316
aa(lp1317
V76561198370272885
p1318
aI5
a(lp1319
I433850
aa(lp1320
aa(lp1321
V76561198374161670
p1322
aI3
a(lp1323
I433850
aI578080
aa(lp1324
aa(lp1325
V76561198365959557
p1326
aI7
a(lp1327
I730
aI343780
aI299360
aa(lp1328
I440
aaa(lp1329
V76561198384515448
p1330
aI2
a(lp1331
I433850
aa(lp1332
aa(lp1333
V76561198124985723
p1334
aI10
a(lp1335
I730
aI444090
aa(lp1336
I570
aaa(lp1337
V76561198152687539
p1338
aI13
a(lp1339
I4000
aI33350
aI236390
aI251570
aI271590
aI304930
aI9900
aI730
aI291550
aa(lp1340
aa(lp1341
V76561198383750991
p1342
aI1
a(lp1343
I730
aa(lp1344
aa(lp1345
V76561198373042799
p1346
aI2
a(lp1347
I730
aa(lp1348
aa(lp1349
V76561198154270600
p1350
aI8
a(lp1351
I10
aI730
aI389430
aa(lp1352
aa(lp1353
V76561198382725090
p1354
aI2
a(lp1355
I433850
aa(lp1356
aa(lp1357
V76561198359115823
p1358
aI5
a(lp1359
I402570
aa(lp1360
I570
aaa(lp1361
V76561198305950142
p1362
aI39
a(lp1363
I730
aI11020
aI239820
aI213670
aI246620
aI296300
aI321040
aI335240
aI298630
aI427730
aI433850
aI438040
aI385730
aI444090
aI482920
aa(lp1364
aa(lp1365
V76561198295401799
p1366
aI3
a(lp1367
I730
aI578080
aa(lp1368
aa(lp1369
V76561198383917697
p1370
aI1
a(lp1371
I730
aa(lp1372
aa(lp1373
V76561198306973725
p1374
aI9
a(lp1375
I730
aI459510
aa(lp1376
I440
aI570
aaa(lp1377
V76561198368868736
p1378
aI2
a(lp1379
I730
aa(lp1380
aa(lp1381
V76561198261021004
p1382
aI14
a(lp1383
I252950
aI730
aI562010
aI575490
aa(lp1384
I570
aaa(lp1385
V76561198290021559
p1386
aI2
a(lp1387
I730
aa(lp1388
aa(lp1389
V76561198375858990
p1390
aI2
a(lp1391
I282660
aI730
aa(lp1392
aa(lp1393
V76561197973453218
p1394
aI0
a(lp1395
ag1392
aa(lp1396
V76561198345953782
p1397
aI2
a(lp1398
I730
aa(lp1399
aa(lp1400
V76561198288381994
p1401
aI215
a(lp1402
I104200
aI96100
aI204360
aI222880
aI262280
aI270550
aI274900
aI285010
aI351030
aI294040
aI304930
aI308000
aI314700
aI317250
aI250400
aI327680
aI730
aI332790
aI344750
aI347560
aI349500
aI350810
aI357280
aI357290
aI357900
aI358080
aI361190
aI362610
aI357070
aI366890
aI369370
aI238370
aI371670
aI380020
aI382120
aI383030
aI252950
aI306040
aI314020
aI355150
aI392050
aI204180
aI274560
aI314450
aI391260
aI397500
aI407230
aI398710
aI399580
aI400240
aI406090
aI341310
aI396160
aI399790
aI416080
aI418270
aI420850
aI92100
aI351490
aI360380
aI370510
aI429700
aI431560
aI434610
aI434730
aI331710
aI354850
aI368900
aI385200
aI395980
aI397620
aI410590
aI416270
aI431270
aI432150
aI438180
aI440760
aI441870
aI444090
aI447880
aI462370
aI516700
aI448780
aI449630
aI451880
aI454890
aI456810
aI457710
aI457940
aI459820
aI460660
aI505440
aI461140
aI461360
aI462960
aI463220
aI463550
aI467370
aI473470
aI473630
aI473640
aI476480
aI485310
aI485350
aI485450
aI485580
aI485730
aI486340
aI487270
aI489220
aI491250
aI491650
aI502140
aI503820
aI504490
aI505210
aI508670
aI516230
aI518800
aI521920
aI522570
aI527480
aI533640
aI537360
aI541370
aI489520
aI545280
aI546450
aI546980
aI547960
aI554530
aI555700
aI556160
aI556280
aI559500
aI562240
aI562270
aI563140
aI569610
aI574630
aI575490
aI575840
aI576560
aI580150
aI581430
aI581620
aI582280
aI583490
aI583760
aI585830
aI586380
aI586480
aI586620
aI586960
aI589390
aI595340
aI595440
aI603190
aI498320
aI610360
aI598470
aI617710
aa(lp1403
I570
aaa(lp1404
V76561198095028508
p1405
aI74
a(lp1406
I6860
aI12210
aI550
aI8190
aI43110
aI33910
aI33930
aI22380
aI12220
aI72850
aI207610
aI730
aI214250
aI203140
aI51100
aI203290
aI224260
aI226700
aI242760
aI91310
aI216250
aI218620
aI252490
aI241540
aI238430
aI221100
aI282660
aI295110
aI433850
aI304930
aI224600
aI227940
aI307690
aI339230
aI223470
aI506540
aa(lp1407
aa(lp1408
V76561198193209110
p1409
aI2
a(lp1410
a(lp1411
I570
aaa(lp1412
V76561198196966774
p1413
aI26
a(lp1414
I4000
aI17080
aI230410
aI236390
aI301520
aI304930
aI730
aI444090
aI444640
aa(lp1415
I440
aaa(lp1416
V76561198175055170
p1417
aI2
a(lp1418
I730
aI339610
aa(lp1419
aa(lp1420
V76561198348667876
p1421
aI6
a(lp1422
I252950
aI271590
aI304050
aI730
aI444090
aa(lp1423
aa(lp1424
V76561198374142092
p1425
aI8
a(lp1426
I4000
aI730
aa(lp1427
aa(lp1428
V76561198254355719
p1429
aI7
a(lp1430
I271590
aI433850
aI439700
aI295110
aI578080
aa(lp1431
aa(lp1432
V76561198259518103
p1433
aI6
a(lp1434
I230410
aI431960
aI433850
aa(lp1435
aa(lp1436
V76561198384674261
p1437
aI9
a(lp1438
I218620
aI730
aI391460
aI444090
aa(lp1439
aa(lp1440
V76561198040502493
p1441
aI86
a(lp1442
I10
aI100
aI220
aI4000
aI9050
aI550
aI12120
aI12140
aI280
aI380
aI420
aI12260
aI203140
aI208200
aI223470
aI204100
aI220240
aI271550
aI290930
aI240
aI730
aI362890
aI444200
aa(lp1443
I570
aaa(lp1444
V76561198113195066
p1445
aI15
a(lp1446
I15620
aI10500
aI34030
aI20920
aI115320
aI203250
aI231430
aI730
aI547680
aI436520
aa(lp1447
I440
aaa(lp1448
V76561198202657435
p1449
aI45
a(lp1450
I4000
aI104700
aI263500
aI272350
aI262410
aI239220
aI218620
aI252950
aI273110
aI286940
aI293260
aI298240
aI301520
aI302830
aI304050
aI304930
aI730
aI349700
aI356640
aI407250
aI408740
aI444090
aa(lp1451
I440
aaa(lp1452
V76561198384967264
p1453
aI0
a(lp1454
ag1451
aa(lp1455
V76561198279054426
p1456
aI4
a(lp1457
I433850
aa(lp1458
aa(lp1459
V76561198271706403
p1460
aI12
a(lp1461
I252950
aI730
aI431240
aa(lp1462
aa(lp1463
V76561198618502232
p1464
aI82
a(lp1465
I252150
aI730
aI344750
aI331710
aI354850
aI368900
aI397620
aI382120
aI385200
aI395980
aI410590
aI432150
aI392870
aI407740
aI416270
aI460660
aI431270
aI447880
aI462370
aI516700
aI449630
aI455710
aI457930
aI473580
aI473640
aI486340
aI489220
aI522570
aI535760
aI541370
aI546450
aI547960
aI554530
aI559500
aI562270
aI575490
aI576470
aI581620
aI351940
aI489520
aa(lp1466
aa(lp1467
V76561198105419356
p1468
aI2
a(lp1469
I433850
aa(lp1470
aa(lp1471
V76561198379588597
p1472
aI1
a(lp1473
I730
aa(lp1474
aa(lp1475
V76561198195665523
p1476
aI10
a(lp1477
I304050
aI444090
aa(lp1478
I570
aaa(lp1479
V76561198071546416
p1480
aI74
a(lp1481
I4000
aI12200
aI550
aI22600
aI620
aI105600
aI201790
aI730
aI204360
aI49520
aI219150
aI219640
aI211400
aI204100
aI226700
aI208090
aI230410
aI248570
aI35720
aI252950
aI238430
aI264200
aI271590
aI282660
aI285900
aI301520
aI304930
aI311690
aI218620
aI250900
aI291550
aI359550
aI433850
aI365590
aI207140
aI379720
aI48000
aI273350
aI504370
aI578080
aa(lp1482
I440
aI570
aI24200
aaa(lp1483
V76561198290135827
p1484
aI6
a(lp1485
I252950
aI730
aI444090
aa(lp1486
aa(lp1487
V76561198380016935
p1488
aI1
a(lp1489
I730
aa(lp1490
aa(lp1491
V76561198346629204
p1492
aI11
a(lp1493
I730
aI322330
aI359550
aI433850
aa(lp1494
aa(lp1495
V76561198162952799
p1496
aI8
a(lp1497
a(lp1498
I570
aaa(lp1499
V76561198364095716
p1500
aI3
a(lp1501
I730
aI433850
aa(lp1502
aa(lp1503
V76561198263707511
p1504
aI8
a(lp1505
I227300
aI730
aI459510
aI504370
aa(lp1506
aa(lp1507
V76561198359493882
p1508
aI40
a(lp1509
I113400
aI265630
aI224260
aI225840
aI304930
aI317360
aI730
aI444090
aa(lp1510
I570
aaa(lp1511
V76561198373056271
p1512
aI2
a(lp1513
I433850
aa(lp1514
aa(lp1515
V76561198288263122
p1516
aI8
a(lp1517
I730
aI385890
aa(lp1518
I570
aaa(lp1519
V76561198367655326
p1520
aI0
a(lp1521
ag1518
aa(lp1522
V76561198352612931
p1523
aI6
a(lp1524
I222880
aI286940
aI730
aI459510
aa(lp1525
aa(lp1526
V76561198317824236
p1527
aI41
a(lp1528
I92100
aI730
aI263980
aI312960
aI314020
aI317250
aI341310
aI348020
aI370510
aI382120
aI385270
aI390970
aI391420
aI397980
aI405610
aI414290
aI415670
aI416080
aI414070
aI423760
aI427930
aI428430
aI431560
aI431990
aI434010
aI448260
aI461890
aI503820
aa(lp1529
aa(lp1530
V76561198287066406
p1531
aI2
a(lp1532
I433850
aa(lp1533
aa(lp1534
V76561198287016124
p1535
aI9
a(lp1536
I730
aI355840
aI393530
aI506540
aa(lp1537
I570
aaa(lp1538
V76561198314099185
p1539
aI32
a(lp1540
I271590
aI274920
aI381210
aI433850
aI730
aa(lp1541
aa(lp1542
V76561198383916169
p1543
aI2
a(lp1544
I433850
aa(lp1545
aa(lp1546
V76561198357326045
p1547
aI28
a(lp1548
I252950
aI444090
aa(lp1549
aa(lp1550
V76561198359083272
p1551
aI14
a(lp1552
I33910
aI227300
aI271590
aI304930
aI730
aI380600
aI433850
aa(lp1553
I440
aaa(lp1554
V76561198205100137
p1555
aI6
a(lp1556
I730
aa(lp1557
aa(lp1558
V76561198369745458
p1559
aI0
a(lp1560
ag1557
aa(lp1561
V76561198378734097
p1562
aI2
a(lp1563
I433850
aa(lp1564
aa(lp1565
V76561198317983299
p1566
aI7
a(lp1567
I730
aI444090
aa(lp1568
aa(lp1569
V76561198369986195
p1570
aI1
a(lp1571
I730
aa(lp1572
aa(lp1573
V76561198372595237
p1574
aI6
a(lp1575
I218620
aI433850
aa(lp1576
aa(lp1577
V76561198320442371
p1578
aI0
a(lp1579
ag1576
aa(lp1580
V76561198366212331
p1581
aI5
a(lp1582
I218620
aI730
aa(lp1583
I570
aaa(lp1584
V76561198383230827
p1585
aI5
a(lp1586
I433850
aa(lp1587
aa(lp1588
V76561198377231448
p1589
aI1
a(lp1590
I730
aa(lp1591
aa(lp1592
V76561198380087572
p1593
aI1
a(lp1594
I730
aa(lp1595
aa(lp1596
V76561198384888602
p1597
aI2
a(lp1598
I433850
aa(lp1599
aa(lp1600
V76561198349180788
p1601
aI0
a(lp1602
ag1599
aa(lp1603
V76561198346212420
p1604
aI12
a(lp1605
I346110
aI433850
aa(lp1606
aa(lp1607
V76561198338437134
p1608
aI14
a(lp1609
I4000
aI237310
aI218620
aI730
aI482920
aa(lp1610
aa(lp1611
V76561198204875636
p1612
aI112
a(lp1613
I4000
aI12210
aI12220
aI70000
aI227300
aI251570
aI284950
aI351030
aI285010
aI302830
aI314700
aI321040
aI274940
aI368900
aI432150
aI730
aI331790
aI335240
aI340650
aI322330
aI383030
aI383580
aI385070
aI395980
aI410590
aI391460
aI253030
aI392870
aI397620
aI416270
aI431270
aI400250
aI412170
aI280790
aI423710
aI460660
aI447880
aI462370
aI448640
aI449630
aI457820
aI457940
aI505440
aI467000
aI473470
aI473630
aI485310
aI486340
aI542340
aI489520
aI546450
aI559500
aI581620
aa(lp1614
I440
aaa(lp1615
V76561198129352132
p1616
aI12
a(lp1617
I252490
aI346110
aI299740
aI433850
aa(lp1618
I570
aaa(lp1619
V76561198378828805
p1620
aI28
a(lp1621
I730
aI433850
aa(lp1622
aa(lp1623
V76561198261431799
p1624
aI5
a(lp1625
I550
aI433850
aa(lp1626
aa(lp1627
V76561198256080323
p1628
aI9
a(lp1629
I730
aI393420
aI444200
aa(lp1630
aa(lp1631
V76561198363736378
p1632
aI1
a(lp1633
I730
aa(lp1634
aa(lp1635
V76561198278657019
p1636
aI10
a(lp1637
I730
aa(lp1638
I440
aaa(lp1639
V76561198374390601
p1640
aI4
a(lp1641
I271590
aI433850
aa(lp1642
aa(lp1643
V76561198347319388
p1644
aI9
a(lp1645
I730
aI381210
aI466240
aa(lp1646
I440
aaa(lp1647
V76561198370189982
p1648
aI8
a(lp1649
I730
aI444090
aa(lp1650
aa(lp1651
V76561198081183681
p1652
aI22
a(lp1653
a(lp1654
I570
aaa(lp1655
V76561198279573374
p1656
aI4
a(lp1657
I730
aI227300
aI393430
aI337000
aa(lp1658
aa(lp1659
V76561198376724796
p1660
aI3
a(lp1661
I730
aI365670
aI444200
aa(lp1662
aa(lp1663
V76561198301841991
p1664
aI6
a(lp1665
I730
aa(lp1666
aa(lp1667
V76561198257985792
p1668
aI68
a(lp1669
I1200
aI12120
aI47890
aI730
aI200710
aI34870
aI227300
aI236390
aI272350
aI265630
aI253710
aI218620
aI252490
aI252950
aI22100
aI286940
aI298240
aI301520
aI302830
aI304930
aI335240
aI336510
aI386940
aI291550
aI391460
aI393420
aI427730
aI433850
aI205890
aI273350
aI516750
aa(lp1670
I440
aI570
aaa(lp1671
V76561198378473416
p1672
aI4
a(lp1673
I730
aI506540
aa(lp1674
aa(lp1675
V76561198306729649
p1676
aI3
a(lp1677
I730
aa(lp1678
aa(lp1679
V76561198373886316
p1680
aI2
a(lp1681
I433850
aa(lp1682
aa(lp1683
V76561198330402535
p1684
aI2
a(lp1685
I730
aa(lp1686
aa(lp1687
V76561198370636530
p1688
aI0
a(lp1689
ag1686
aa(lp1690
V76561198272850238
p1691
aI21
a(lp1692
I236390
aI301520
aI302830
aI304930
aI227940
aI730
aI355840
aI391460
aI407530
aI434570
aI444090
aa(lp1693
I440
aaa(lp1694
V76561198388252926
p1695
aI2
a(lp1696
I433850
aa(lp1697
aa(lp1698
V76561198023726810
p1699
aI1
a(lp1700
I730
aa(lp1701
aa(lp1702
V76561198104318450
p1703
aI19
a(lp1704
I550
aI204360
aI272350
aI218620
aI227300
aI213670
aI304930
aI307590
aI291480
aI730
aI250900
aI444090
aI582500
aI9480
aa(lp1705
aa(lp1706
V76561198312514676
p1707
aI8
a(lp1708
I730
aa(lp1709
aa(lp1710
V76561198366947852
p1711
aI8
a(lp1712
I730
aI292030
aI433850
aa(lp1713
I570
aaa(lp1714
V76561198364218779
p1715
aI3
a(lp1716
I730
aI459510
aI550900
aa(lp1717
aa(lp1718
V76561197974753242
p1719
aI18
a(lp1720
I10
aI80
aI240
aI320
aI340
aI550
aI295270
aI730
aI444090
aa(lp1721
I17500
aaa(lp1722
V76561198367308645
p1723
aI4
a(lp1724
I730
aa(lp1725
aa(lp1726
V76561198247270154
p1727
aI5
a(lp1728
I12110
aI730
aa(lp1729
aa(lp1730
V76561198380589346
p1731
aI2
a(lp1732
I433850
aa(lp1733
aa(lp1734
V76561198357390880
p1735
aI6
a(lp1736
I304930
aI730
aa(lp1737
I570
aaa(lp1738
V76561198369137000
p1739
aI3
a(lp1740
I218620
aI730
aI585030
aa(lp1741
aa(lp1742
V76561198339860244
p1743
aI9
a(lp1744
I730
aI444090
aa(lp1745
aa(lp1746
V76561198311016767
p1747
aI5
a(lp1748
I224260
aI730
aa(lp1749
aa(lp1750
V76561198729104222
p1751
aI2
a(lp1752
I433850
aa(lp1753
aa(lp1754
V76561198298133902
p1755
aI108
a(lp1756
I10
aI240
aI4000
aI12200
aI227300
aI243870
aI242760
aI263060
aI271590
aI282660
aI304930
aI321040
aI331710
aI354850
aI368900
aI432150
aI730
aI397620
aI416270
aI431270
aI399580
aI407530
aI412620
aI359550
aI433850
aI444090
aI447880
aI462370
aI516700
aI449630
aI460660
aI505440
aI485310
aI522570
aI530620
aI542340
aI546450
aI554530
aI555570
aI559500
aI436520
aI575490
aI581620
aI586380
aI595340
aI219640
aI9480
aa(lp1757
aa(lp1758
V76561198092136303
p1759
aI5
a(lp1760
I730
aI433850
aa(lp1761
I570
aaa(lp1762
V76561198382362627
p1763
aI2
a(lp1764
I730
aa(lp1765
aa(lp1766
V76561198364097741
p1767
aI1
a(lp1768
I730
aa(lp1769
aa(lp1770
V76561198308851195
p1771
aI0
a(lp1772
ag1769
aa(lp1773
V76561198378177365
p1774
aI0
a(lp1775
ag1769
aa(lp1776
V76561198141923885
p1777
aI12
a(lp1778
I730
aI271590
aI393420
aI578080
aa(lp1779
aa(lp1780
V76561198321897988
p1781
aI4
a(lp1782
I227300
aI730
aa(lp1783
aa(lp1784
V76561198268154980
p1785
aI15
a(lp1786
I113200
aI730
aI250900
aI298630
aI368360
aI389570
aI444640
aI482920
aI273350
aa(lp1787
aa(lp1788
V76561198376793809
p1789
aI6
a(lp1790
I730
aI339800
aI383080
aa(lp1791
aa(lp1792
V76561198311574330
p1793
aI64
a(lp1794
I550
aI207230
aI230410
aI302830
aI304930
aI730
aI339610
aI355180
aI391460
aI444090
aI506540
aa(lp1795
I440
aI17500
aaa(lp1796
V76561198308684677
p1797
aI4
a(lp1798
I4000
aI730
aI444090
aa(lp1799
aa(lp1800
V76561198297021461
p1801
aI4
a(lp1802
I467960
aa(lp1803
I570
aaa(lp1804
V76561198342829803
p1805
aI5
a(lp1806
I730
aa(lp1807
aa(lp1808
V76561198096326317
p1809
aI31
a(lp1810
I238960
aI243870
aI264360
aI304930
aI730
aI349700
aI363970
aI372000
aI386360
aI291550
aI236110
aI280790
aI444090
aI588430
aa(lp1811
I570
aaa(lp1812
V76561198156328313
p1813
aI34
a(lp1814
I273110
aI10
aI80
aI100
aI240
aI730
aa(lp1815
I440
aaa(lp1816
V76561198366712878
p1817
aI4
a(lp1818
I730
aa(lp1819
I570
aaa(lp1820
V76561198129012064
p1821
aI8
a(lp1822
I730
aI444090
aa(lp1823
I570
aaa(lp1824
V76561198211094073
p1825
aI32
a(lp1826
I620
aI104900
aI208090
aI230410
aI207140
aI252490
aI252950
aI331470
aI730
aI346110
aI380600
aI291550
aI393420
aI503350
aa(lp1827
I570
aI630
aaa(lp1828
V76561198314562614
p1829
aI4
a(lp1830
I433850
aa(lp1831
aa(lp1832
V76561198156742754
p1833
aI26
a(lp1834
I4000
aI730
aI227240
aI221100
aI8930
aI304050
aI346110
aI378120
aI359550
aa(lp1835
I440
aaa(lp1836
V76561198095360055
p1837
aI8
a(lp1838
I223390
aI730
aa(lp1839
I440
aI570
aaa(lp1840
V76561198377234892
p1841
aI2
a(lp1842
I730
aa(lp1843
aa(lp1844
V76561198273590999
p1845
aI1
a(lp1846
I730
aa(lp1847
aa(lp1848
V76561198359937744
p1849
aI6
a(lp1850
I730
aa(lp1851
aa(lp1852
V76561198119186808
p1853
aI97
a(lp1854
I70
aI4000
aI550
aI8190
aI41000
aI41010
aI20920
aI41070
aI17080
aI230410
aI224260
aI34870
aI242760
aI218620
aI219640
aI233130
aI255520
aI222880
aI225840
aI295110
aI433850
aI304930
aI227940
aI317360
aI730
aI417890
aI444090
aI310380
aI459510
aa(lp1855
I440
aI570
aI259080
aaa(lp1856
V76561198030968106
p1857
aI12
a(lp1858
I287700
aI291480
aI730
aI346110
aI369200
aI555570
aI578080
aa(lp1859
I440
aaa(lp1860
V76561198117377098
p1861
aI25
a(lp1862
I243870
aa(lp1863
I570
aaa(lp1864
V76561198376425024
p1865
aI3
a(lp1866
I252950
aI444090
aa(lp1867
aa(lp1868
V76561198307261480
p1869
aI20
a(lp1870
I730
aI344750
aI373110
aI385200
aI395980
aI410590
aI397620
aI416270
aI462370
aI473580
aI473630
aI473640
aI489220
aI518800
aI554530
aa(lp1871
aa(lp1872
V76561198092679746
p1873
aI10
a(lp1874
I10
aI240
aI730
aa(lp1875
aa(lp1876
V76561198321160277
p1877
aI13
a(lp1878
I263280
aI271590
aI304930
aI730
aI444090
aa(lp1879
I440
aaa(lp1880
V76561198167828781
p1881
aI4
a(lp1882
I730
aa(lp1883
I570
aaa(lp1884
V76561198256438033
p1885
aI25
a(lp1886
I4000
aI9450
aI20500
aI41700
aI56400
aI20530
aI244450
aI273110
aI730
aI346110
aI407530
aI359550
aI375230
aa(lp1887
I570
aaa(lp1888
V76561198172880590
p1889
aI51
a(lp1890
I4000
aI12210
aI40800
aI207140
aI252950
aI304930
aI730
aI368360
aI459510
aI48000
aa(lp1891
I440
aaa(lp1892
V76561198141888063
p1893
aI29
a(lp1894
I433850
aa(lp1895
I570
aaa(lp1896
V76561198281880230
p1897
aI4
a(lp1898
I271590
aI333600
aI433850
aa(lp1899
aa(lp1900
V76561198561416886
p1901
aI4
a(lp1902
I10
aI282660
aa(lp1903
aa(lp1904
V76561198120327534
p1905
aI3
a(lp1906
I202170
aI730
aa(lp1907
aa(lp1908
V76561198381689000
p1909
aI4
a(lp1910
I433850
aI295110
aa(lp1911
aa(lp1912
V76561198381321790
p1913
aI2
a(lp1914
I730
aa(lp1915
aa(lp1916
V76561198103432037
p1917
aI83
a(lp1918
I4000
aI105600
aI65800
aI730
aI4920
aI99900
aI113400
aI200210
aI207230
aI39000
aI206500
aI253710
aI242760
aI236850
aI295690
aI298630
aI301520
aI304930
aI63380
aI317470
aI323370
aI291550
aI391460
aI433850
aI507390
aI555570
aa(lp1919
I440
aI570
aI630
aI24200
aaa(lp1920
V76561198301415466
p1921
aI30
a(lp1922
I227300
aI236390
aI272350
aI286940
aI227940
aI730
aI335240
aI280790
aI459510
aI541180
aI555570
aa(lp1923
aa(lp1924
V76561198307031376
p1925
aI0
a(lp1926
ag1923
aa(lp1927
V76561198368917519
p1928
aI1
a(lp1929
I730
aa(lp1930
aa(lp1931
V76561198369626583
p1932
aI3
a(lp1933
I271590
aI433850
aa(lp1934
aa(lp1935
V76561198384040702
p1936
aI2
a(lp1937
I730
aa(lp1938
I570
aaa(lp1939
V76561198358920435
p1940
aI11
a(lp1941
I24960
aI113400
aI206210
aI304930
aI730
aI444090
aI436520
aa(lp1942
I440
aaa(lp1943
V76561198239033468
p1944
aI31
a(lp1945
I730
aI202990
aI113400
aI230410
aI261180
aI304050
aI321400
aI326460
aI333930
aI291550
aI236110
aI438270
aI359550
aI495890
aa(lp1946
aa(lp1947
V76561198115882127
p1948
aI46
a(lp1949
I42700
aI42710
aI220240
aI730
aI311210
aa(lp1950
aa(lp1951
V76561198377694484
p1952
aI1
a(lp1953
I730
aa(lp1954
aa(lp1955
V76561198365919319
p1956
aI1
a(lp1957
I730
aa(lp1958
aa(lp1959
V76561198325384387
p1960
aI13
a(lp1961
I730
aI541570
aa(lp1962
I570
aaa(lp1963
V76561198378891714
p1964
aI2
a(lp1965
I730
aa(lp1966
aa(lp1967
V76561198354489372
p1968
aI2
a(lp1969
I730
aa(lp1970
aa(lp1971
V76561198384976209
p1972
aI2
a(lp1973
I433850
aa(lp1974
aa(lp1975
V76561198369112742
p1976
aI1
a(lp1977
I730
aa(lp1978
aa(lp1979
V76561198383625336
p1980
aI1
a(lp1981
I730
aa(lp1982
aa(lp1983
V76561198334879154
p1984
aI8
a(lp1985
I730
aI359550
aI433850
aa(lp1986
I570
aaa(lp1987
V76561198368308518
p1988
aI28
a(lp1989
I730
aI369200
aI550900
aI578080
aI204300
aa(lp1990
aa(lp1991
V76561198150401991
p1992
aI21
a(lp1993
I10
aI30
aI10180
aI304930
aa(lp1994
aa(lp1995
V76561198361817189
p1996
aI3
a(lp1997
I730
aa(lp1998
aa(lp1999
V76561198383789669
p2000
aI6
a(lp2001
I730
aa(lp2002
I440
aaa(lp2003
V76561198383477630
p2004
aI1
a(lp2005
I730
aa(lp2006
aa(lp2007
V76561198218415437
p2008
aI96
a(lp2009
I550
aI104900
aI227300
aI242760
aI244210
aI252490
aI271590
aI296300
aI304930
aI321040
aI730
aI218620
aI335240
aI346900
aI363970
aI238370
aI291550
aI320300
aI280790
aI429180
aI433850
aI440900
aI444090
aI454680
aI466910
aI442080
aa(lp2010
I440
aaa(lp2011
V76561198341002420
p2012
aI8
a(lp2013
I620
aI230410
aI730
aa(lp2014
aa(lp2015
V76561198263020915
p2016
aI0
a(lp2017
ag2014
aa(lp2018
V76561198384664405
p2019
aI2
a(lp2020
I730
aI280790
aa(lp2021
aa(lp2022
V76561198303307052
p2023
aI3
a(lp2024
I274920
aI433850
aa(lp2025
aa(lp2026
V76561198311875010
p2027
aI18
a(lp2028
I242760
aI301520
aI304050
aI304930
aI227940
aI730
aI346120
aI444090
aI459510
aI555570
aa(lp2029
I440
aaa(lp2030
V76561198359380287
p2031
aI5
a(lp2032
I730
aI433850
aa(lp2033
aa(lp2034
V76561198245628224
p2035
aI61
a(lp2036
I24740
aI24960
aI8190
aI217980
aI227300
aI206210
aI208090
aI230410
aI253710
aI252950
aI263280
aI271590
aI301520
aI304930
aI238090
aI227940
aI238010
aI730
aI241560
aI387990
aI378480
aI393420
aI299360
aI431240
aI444090
aI444200
aa(lp2037
I259080
aaa(lp2038
V76561198373900036
p2039
aI2
a(lp2040
I730
aa(lp2041
aa(lp2042
V76561198371313864
p2043
aI3
a(lp2044
I730
aa(lp2045
I440
aaa(lp2046
V76561198282285535
p2047
aI18
a(lp2048
I4000
aI274190
aI304930
aI730
aI287290
aI407250
aa(lp2049
I440
aaa(lp2050
V76561198148413333
p2051
aI31
a(lp2052
I227300
aI236390
aI242760
aI218620
aI252490
aI252950
aI271590
aI286940
aI304930
aI291480
aI227940
aI326460
aI730
aI250900
aI346900
aI363970
aI369200
aI383080
aI311210
aI433850
aI444090
aI513650
aa(lp2053
I440
aaa(lp2054
V76561198329940826
p2055
aI3
a(lp2056
I730
aa(lp2057
aa(lp2058
V76561198301023736
p2059
aI5
a(lp2060
I730
aI339610
aa(lp2061
I570
aaa(lp2062
V76561198097399099
p2063
aI2
a(lp2064
I433850
aa(lp2065
aa(lp2066
V76561198347733478
p2067
aI17
a(lp2068
I4000
aI236390
aI301520
aI304930
aI227940
aI331470
aI730
aI361420
aI444200
aa(lp2069
aa(lp2070
V76561198236913410
p2071
aI229
a(lp2072
I209080
aI224220
aI251910
aI252150
aI233700
aI263060
aI279720
aI284930
aI284950
aI351030
aI285010
aI285090
aI293180
aI294040
aI297020
aI299460
aI301750
aI303390
aI307070
aI308000
aI314700
aI315060
aI319830
aI321950
aI322970
aI326120
aI329950
aI331710
aI354850
aI368900
aI432150
aI730
aI339470
aI343360
aI344130
aI344300
aI350810
aI354860
aI355920
aI357280
aI357900
aI360970
aI362610
aI371420
aI378100
aI382080
aI382120
aI388870
aI392050
aI392870
aI385200
aI395980
aI410590
aI397620
aI416270
aI431270
aI397580
aI399580
aI344750
aI373110
aI383030
aI407740
aI407750
aI457930
aI457940
aI473580
aI473620
aI473630
aI473640
aI473650
aI486340
aI491250
aI516230
aI400250
aI401190
aI402840
aI406090
aI460660
aI422100
aI422250
aI423920
aI428830
aI428430
aI434250
aI444220
aI447850
aI447880
aI462370
aI516700
aI449220
aI449630
aI455710
aI457710
aI505440
aI463050
aI466730
aI467370
aI475220
aI476480
aI485310
aI486360
aI486820
aI487220
aI487270
aI489220
aI496600
aI498660
aI486480
aI501900
aI503820
aI504490
aI509240
aI509840
aI510840
aI511750
aI518800
aI522570
aI526740
aI526790
aI533620
aI535690
aI535760
aI537360
aI538590
aI540310
aI541370
aI542340
aI489520
aI545370
aI546450
aI529760
aI547960
aI549900
aI554530
aI559500
aI562270
aI562520
aI568720
aI575490
aI575700
aI575920
aI576440
aI463150
aI581620
aI581640
aI583490
aI585830
aI586380
aI589390
aI591420
aI375230
aI595340
aI601530
aI498320
aI219640
aa(lp2073
I570
aaa(lp2074
V76561198356840459
p2075
aI5
a(lp2076
I730
aI346110
aa(lp2077
aa(lp2078
V76561198376278684
p2079
aI29
a(lp2080
I433850
aI730
aa(lp2081
aa(lp2082
V76561198114764584
p2083
aI44
a(lp2084
I4000
aI263500
aI271290
aI304930
aI321040
aI730
aI323470
aa(lp2085
I570
aaa(lp2086
V76561198140845028
p2087
aI6
a(lp2088
a(lp2089
I570
aaa(lp2090
V76561198257779824
p2091
aI2
a(lp2092
I339280
aa(lp2093
I570
aaa(lp2094
V76561198364392932
p2095
aI4
a(lp2096
I240320
aI730
aa(lp2097
I570
aaa(lp2098
V76561198374092759
p2099
aI2
a(lp2100
I433850
aI439700
aa(lp2101
aa(lp2102
V76561198292053458
p2103
aI1
a(lp2104
I730
aa(lp2105
aa(lp2106
V76561198325772900
p2107
aI5
a(lp2108
I730
aa(lp2109
aa(lp2110
V76561198271082435
p2111
aI34
a(lp2112
I220
aI380
aI400
aI420
aI550
aI265630
aI225840
aI304930
aI227940
aI730
aI333930
aI365300
aI377160
aI440900
aI444090
aI48000
aI555570
aI578080
aa(lp2113
I440
aaa(lp2114
V76561198289166765
p2115
aI0
a(lp2116
ag2113
aa(lp2117
V76561198372754533
p2118
aI4
a(lp2119
I433850
aI295110
aa(lp2120
aa(lp2121
V76561198240289188
p2122
aI56
a(lp2123
I42910
aI32510
aI105600
aI204360
aI251470
aI267530
aI273110
aI301520
aI304050
aI304930
aI313690
aI730
aI346900
aI363970
aI382490
aI384980
aI291550
aI390520
aI280790
aa(lp2124
I570
aaa(lp2125
V76561198325249034
p2126
aI11
a(lp2127
I48000
aI230410
aI236390
aI280790
aI433850
aa(lp2128
aa(lp2129
V76561198356577226
p2130
aI6
a(lp2131
I433850
aa(lp2132
aa(lp2133
V76561198372649242
p2134
aI1
a(lp2135
I730
aa(lp2136
aa(lp2137
V76561198187086591
p2138
aI35
a(lp2139
I22100
aI48700
aI730
aa(lp2140
aa(lp2141
V76561198373647646
p2142
aI7
a(lp2143
I730
aa(lp2144
I570
aaa(lp2145
V76561198314655862
p2146
aI12
a(lp2147
I304050
aI304930
aI730
aI359320
aI291550
aa(lp2148
aa(lp2149
V76561198188555873
p2150
aI543
a(lp2151
I4000
aI22300
aI24740
aI29800
aI41000
aI8930
aI104200
aI92100
aI96100
aI6220
aI201510
aI201700
aI20920
aI204180
aI219640
aI1930
aI223470
aI209190
aI212070
aI230410
aI250600
aI253940
aI252150
aI263060
aI263980
aI270850
aI271590
aI274560
aI278640
aI278970
aI281920
aI285480
aI286940
aI287120
aI291010
aI292380
aI292410
aI292630
aI293180
aI294230
aI245620
aI296220
aI299460
aI299720
aI286690
aI287390
aI304460
aI250400
aI311140
aI313020
aI227940
aI313830
aI222900
aI317250
aI320630
aI321040
aI321950
aI331470
aI331710
aI354850
aI368900
aI432150
aI10
aI240
aI730
aI332480
aI218620
aI333740
aI252490
aI340070
aI341310
aI341500
aI344040
aI344910
aI346900
aI347430
aI347510
aI347560
aI348020
aI348450
aI348730
aI348960
aI349260
aI349500
aI351030
aI351150
aI351490
aI356380
aI357290
aI357770
aI338530
aI360380
aI360620
aI360890
aI360970
aI361190
aI362140
aI363490
aI363970
aI364050
aI357070
aI366890
aI368710
aI397620
aI368990
aI370510
aI371210
aI371440
aI371670
aI373110
aI373440
aI326120
aI375510
aI377290
aI377310
aI378100
aI378270
aI379290
aI380020
aI383330
aI383580
aI385200
aI395980
aI410590
aI385770
aI388120
aI388870
aI389400
aI306040
aI314020
aI355150
aI390970
aI391070
aI391170
aI391340
aI391460
aI391420
aI392050
aI314450
aI394540
aI396160
aI396790
aI397980
aI391260
aI397500
aI407230
aI399430
aI399580
aI399790
aI314700
aI329950
aI344750
aI383030
aI392870
aI407740
aI407750
aI457930
aI457940
aI473580
aI473620
aI473630
aI473640
aI473650
aI486340
aI491250
aI516230
aI400240
aI401680
aI403560
aI403900
aI397940
aI405610
aI407300
aI409380
aI409420
aI410210
aI411120
aI411740
aI412130
aI412150
aI412600
aI415080
aI415490
aI415960
aI416080
aI416130
aI418070
aI414070
aI420740
aI420850
aI422250
aI423880
aI424000
aI416270
aI431270
aI428950
aI429470
aI429700
aI431260
aI431560
aI431710
aI432280
aI434420
aI434890
aI435140
aI438080
aI438180
aI439250
aI440760
aI444090
aI444220
aI444290
aI444410
aI444260
aI445880
aI446640
aI447880
aI462370
aI516700
aI447890
aI448250
aI448260
aI448440
aI448350
aI448780
aI449200
aI449440
aI449630
aI450190
aI451880
aI453270
aI453960
aI454040
aI454080
aI454100
aI454180
aI454200
aI454930
aI457550
aI458600
aI458940
aI459100
aI459820
aI460660
aI505440
aI461140
aI461490
aI461570
aI461640
aI461690
aI461720
aI461880
aI461890
aI462960
aI463040
aI463050
aI463110
aI463350
aI463550
aI464960
aI466840
aI466890
aI467010
aI467370
aI467390
aI469730
aI473470
aI473560
aI473730
aI473810
aI474820
aI477980
aI479260
aI482120
aI485220
aI485310
aI485330
aI485350
aI485410
aI485450
aI485730
aI485950
aI487220
aI487270
aI487370
aI487700
aI488200
aI490940
aI491030
aI491170
aI491260
aI491330
aI492240
aI493650
aI493700
aI493710
aI495890
aI496500
aI496600
aI496750
aI496870
aI497050
aI497100
aI497350
aI223850
aI499420
aI486480
aI501690
aI501800
aI501830
aI501900
aI501930
aI502090
aI502140
aI319630
aI505760
aI506670
aI507390
aI507400
aI508180
aI508290
aI508670
aI508760
aI509000
aI509110
aI509220
aI509240
aI509840
aI511340
aI510220
aI512450
aI512640
aI513530
aI513610
aI513620
aI513630
aI513780
aI514660
aI514970
aI515310
aI515470
aI515690
aI515910
aI518100
aI518800
aI521100
aI521230
aI521930
aI521940
aI522570
aI523790
aI525290
aI526460
aI527550
aI527760
aI528090
aI528510
aI528660
aI529950
aI530540
aI533120
aI533300
aI533910
aI535250
aI535760
aI539350
aI539440
aI539450
aI539460
aI531490
aI540020
aI540900
aI541100
aI537860
aI444200
aI542340
aI542430
aI543170
aI543420
aI543770
aI543780
aI543790
aI545280
aI545320
aI545360
aI545370
aI545470
aI545700
aI546700
aI546920
aI546980
aI546990
aI547960
aI550580
aI551080
aI551550
aI551930
aI552980
aI553790
aI554530
aI555260
aI555430
aI555670
aI555920
aI555940
aI556110
aI556120
aI557680
aI562220
aI562240
aI562270
aI562520
aI562640
aI562760
aI567250
aI567280
aI567290
aI568720
aI569330
aI571020
aI489520
aI571870
aI571910
aI422870
aI574030
aI574620
aI574810
aI575490
aI575640
aI575680
aI575700
aI575740
aI575760
aI575780
aI575860
aI575870
aI575910
aI575920
aI576560
aI576750
aI578180
aI578260
aI579150
aI581000
aI581030
aI581050
aI581280
aI581350
aI581430
aI581470
aI581620
aI581800
aI581820
aI582280
aI582430
aI583660
aI585550
aI585560
aI585720
aI586190
aI586470
aI586480
aI586520
aI586530
aI586540
aI588420
aI589390
aI593290
aI596590
aI596650
aI596690
aI596870
aI600450
aI601280
aI603290
aI603370
aI603570
aI604570
aI604810
aI605520
aI605530
aI605910
aI606050
aI607270
aI607440
aI608390
aI608560
aI608830
aI613250
aI619400
aI620240
aI621150
aI625950
aI627950
aI628420
aa(lp2152
I440
aaa(lp2153
V76561198281295831
p2154
aI4
a(lp2155
I433850
aa(lp2156
aa(lp2157
V76561198164066856
p2158
aI13
a(lp2159
I4000
aI218620
aI304050
aI304930
aI730
aa(lp2160
I440
aaa(lp2161
V76561198376694228
p2162
aI2
a(lp2163
I730
aa(lp2164
aa(lp2165
V76561198245473542
p2166
aI8
a(lp2167
I230410
aI223710
aI304050
aI730
aa(lp2168
aa(lp2169
V76561198143597538
p2170
aI91
a(lp2171
I4000
aI730
aI224220
aI72850
aI228300
aI251910
aI252950
aI263060
aI265930
aI284930
aI293180
aI297020
aI351030
aI301750
aI302830
aI303390
aI344750
aI350810
aI355920
aI360970
aI331710
aI354850
aI368900
aI397620
aI373110
aI388870
aI392050
aI392870
aI314700
aI329950
aI383030
aI407740
aI407750
aI457930
aI457940
aI473580
aI473620
aI473630
aI473640
aI473650
aI486340
aI491250
aI516230
aI385200
aI395980
aI410590
aI416270
aI422250
aI428430
aI431270
aI432150
aI444090
aI444220
aI447880
aI476480
aI485310
aI487220
aI489220
aI496500
aI503820
aI526790
aI489520
aI546450
aI562270
aI565340
aI576440
aI463150
aa(lp2172
I570
aaa(lp2173
V76561198271046333
p2174
aI5
a(lp2175
I730
aI230410
aI304930
aI291480
aa(lp2176
aa(lp2177
V76561198155161306
p2178
aI0
a(lp2179
ag2176
aa(lp2180
V76561198207622959
p2181
aI3
a(lp2182
I730
aI456610
aa(lp2183
aa(lp2184
V76561198297022473
p2185
aI4
a(lp2186
I730
aI242760
aI322170
aa(lp2187
aa(lp2188
V76561198369681737
p2189
aI2
a(lp2190
I433850
aa(lp2191
aa(lp2192
V76561198377428655
p2193
aI2
a(lp2194
I730
aa(lp2195
aa(lp2196
V76561198289406838
p2197
aI5
a(lp2198
I730
aa(lp2199
aa(lp2200
V76561198370001640
p2201
aI2
a(lp2202
a(lp2203
I570
aaa(lp2204
V76561198320227563
p2205
aI10
a(lp2206
I252950
aI271590
aI301520
aI730
aI506540
aa(lp2207
I440
aaa(lp2208
V76561198262358417
p2209
aI0
a(lp2210
ag2207
aa(lp2211
V76561198379720977
p2212
aI0
a(lp2213
ag2207
aa(lp2214
V76561198379685798
p2215
aI0
a(lp2216
ag2207
aa(lp2217
V76561198371188979
p2218
aI4
a(lp2219
I433850
aI439700
aI295110
aa(lp2220
aa(lp2221
V76561198352591726
p2222
aI19
a(lp2223
I274940
aI730
aI434570
aI295110
aI207140
aa(lp2224
aa(lp2225
V76561198052540122
p2226
aI18
a(lp2227
I4000
aI400
aI620
aI203140
aI271590
aI282660
aI730
aI48000
aa(lp2228
aa(lp2229
V76561198380908372
p2230
aI3
a(lp2231
I730
aa(lp2232
aa(lp2233
V76561198145659494
p2234
aI4
a(lp2235
I433850
aa(lp2236
I570
aaa(lp2237
V76561198145230931
p2238
aI121
a(lp2239
I4000
aI8190
aI70000
aI105600
aI42680
aI42690
aI202990
aI212910
aI215470
aI49540
aI17080
aI38830
aI51100
aI102700
aI107900
aI203290
aI218230
aI272350
aI209870
aI214420
aI265630
aI252490
aI252950
aI221100
aI286940
aI291210
aI301520
aI304930
aI313120
aI227940
aI317360
aI321360
aI730
aI241560
aI333930
aI335330
aI338180
aI319630
aI346110
aI349700
aI351290
aI355840
aI234140
aI311210
aI299360
aI359550
aI428690
aI433850
aI444090
aI371660
aI436520
aI578080
aI588430
aa(lp2240
I440
aI1840
aI259080
aaa(lp2241
V76561198372803317
p2242
aI2
a(lp2243
I433850
aa(lp2244
aa(lp2245
V76561198169147916
p2246
aI22
a(lp2247
I17080
aI218230
aI236390
aI301520
aI304930
aI291480
aI227940
aI730
aI380600
aI550040
aa(lp2248
I440
aaa(lp2249
V76561198516646195
p2250
aI32
a(lp2251
I10
aI220
aI240
aI380
aI4000
aI420
aI620
aI730
aa(lp2252
I440
aaa(lp2253
V76561198360546512
p2254
aI11
a(lp2255
I240
aI271590
aI730
aa(lp2256
I440
aI570
aaa(lp2257
V76561198372988542
p2258
aI2
a(lp2259
I433850
aa(lp2260
aa(lp2261
V76561198120544680
p2262
aI4
a(lp2263
I10
aI730
aa(lp2264
aa(lp2265
V76561198267484003
p2266
aI6
a(lp2267
I730
aa(lp2268
I440
aaa(lp2269
V76561198375228114
p2270
aI2
a(lp2271
I433850
aa(lp2272
aa(lp2273
V76561198382619116
p2274
aI2
a(lp2275
I433850
aa(lp2276
aa(lp2277
V76561197991473899
p2278
aI20
a(lp2279
I227300
aI218620
aI346110
aI271590
aI389430
aI287920
aI241560
aI379720
aI364360
aI442080
aI518790
aI460930
aa(lp2280
aa(lp2281
V76561198263745179
p2282
aI19
a(lp2283
I550
aI219640
aI224260
aI252490
aI313160
aI730
aI534500
aa(lp2284
aa(lp2285
V76561198127788045
p2286
aI3
a(lp2287
I433850
aa(lp2288
aa(lp2289
V76561198366939873
p2290
aI5
a(lp2291
I242760
aI730
aI225540
aa(lp2292
aa(lp2293
V76561197978354509
p2294
aI19
a(lp2295
I240
aI10
aI80
aI39500
aI730
aI282660
aI500
aa(lp2296
aa(lp2297
V76561198263539169
p2298
aI10
a(lp2299
I730
aI335240
aI433850
aI295110
aI381210
aa(lp2300
aa(lp2301
V76561198716874324
p2302
aI2
a(lp2303
I730
aa(lp2304
aa(lp2305
V76561198372192516
p2306
aI1
a(lp2307
I730
aa(lp2308
aa(lp2309
V76561198352085080
p2310
aI0
a(lp2311
ag2308
aa(lp2312
V76561198368786376
p2313
aI2
a(lp2314
I730
aa(lp2315
I570
aaa(lp2316
V76561198370428141
p2317
aI7
a(lp2318
I271590
aI282660
aI730
aI578080
aa(lp2319
aa(lp2320
V76561198282628154
p2321
aI10
a(lp2322
I227300
aI730
aI444090
aa(lp2323
aa(lp2324
V76561198343012107
p2325
aI4
a(lp2326
I252950
aI730
aa(lp2327
aa(lp2328
V76561198315268345
p2329
aI25
a(lp2330
I252490
aI304050
aI304930
aI730
aI346110
aa(lp2331
aa(lp2332
V76561198368780279
p2333
aI2
a(lp2334
I730
aa(lp2335
aa(lp2336
V76561198364303816
p2337
aI1
a(lp2338
I730
aa(lp2339
aa(lp2340
V76561198381952386
p2341
aI0
a(lp2342
ag2339
aa(lp2343
V76561198383922993
p2344
aI2
a(lp2345
I433850
aa(lp2346
aa(lp2347
V76561198375383332
p2348
aI0
a(lp2349
ag2346
aa(lp2350
V76561198008260154
p2351
aI3
a(lp2352
I730
aI462780
aa(lp2353
aa(lp2354
V76561198216621095
p2355
aI4
a(lp2356
I730
aI444090
aa(lp2357
aa(lp2358
V76561198383122792
p2359
aI2
a(lp2360
I433850
aa(lp2361
aa(lp2362
V76561198306915212
p2363
aI7
a(lp2364
I4000
aI252950
aI40970
aI301520
aI730
aa(lp2365
aa(lp2366
V76561198060351120
p2367
aI17
a(lp2368
I12140
aI500
aI47870
aI201700
aI242700
aI282530
aI730
aI291550
aI444090
aa(lp2369
aa(lp2370
V76561198385111564
p2371
aI1
a(lp2372
I730
aa(lp2373
aa(lp2374
V76561198142169162
p2375
aI49
a(lp2376
I105600
aI10
aI730
aI386360
aa(lp2377
I570
aaa(lp2378
V76561198380579560
p2379
aI2
a(lp2380
I730
aa(lp2381
I570
aaa(lp2382
V76561198336576308
p2383
aI1
a(lp2384
I730
aa(lp2385
aa(lp2386
V76561198078403631
p2387
aI0
a(lp2388
ag2385
aa(lp2389
V76561198271257719
p2390
aI0
a(lp2391
ag2385
aa(lp2392
V76561198383730540
p2393
aI3
a(lp2394
I730
aa(lp2395
aa(lp2396
V76561198302056304
p2397
aI12
a(lp2398
I304930
aI730
aI444090
aa(lp2399
aa(lp2400
V76561198322407673
p2401
aI55
a(lp2402
I4000
aI6060
aI550
aI109400
aI200210
aI230410
aI238960
aI206500
aI252490
aI49520
aI211820
aI367540
aI281990
aI290140
aI304030
aI224600
aI291480
aI268420
aI274170
aI323370
aI730
aI218620
aI326460
aI322330
aI385800
aI386360
aI386940
aI291550
aI299360
aI423890
aI429790
aI434570
aI444090
aI489830
aI8500
aI582660
aI610360
aa(lp2403
I440
aI570
aI17520
aaa(lp2404
V76561198301604115
p2405
aI0
a(lp2406
ag2403
aa(lp2407
V76561198361241258
p2408
aI2
a(lp2409
I730
aa(lp2410
aa(lp2411
V76561198100766069
p2412
aI55
a(lp2413
I80
aI4000
aI33230
aI200260
aI230410
aI272350
aI241640
aI72850
aI252490
aI252950
aI270550
aI286160
aI304050
aI304930
aI241930
aI321040
aI326460
aI730
aI273350
aI346110
aI346900
aI307780
aI363970
aI377160
aI291550
aI311210
aI433850
aI433950
aI489830
aI555700
aI578080
aI588430
aI219640
aa(lp2414
I570
aaa(lp2415
V76561198368055066
p2416
aI8
a(lp2417
I304050
aI304930
aI730
aI386360
aI444090
aa(lp2418
aa(lp2419
V76561198172566021
p2420
aI5
a(lp2421
I730
aI444090
aa(lp2422
I570
aaa(lp2423
V76561198148772641
p2424
aI151
a(lp2425
I240
aI4000
aI70100
aI201790
aI227300
aI109600
aI224220
aI218620
aI252950
aI271570
aI295110
aI433850
aI298600
aI299460
aI301520
aI303390
aI304050
aI304930
aI306410
aI307070
aI314700
aI317250
aI296470
aI321400
aI321950
aI221380
aI326120
aI329950
aI274940
aI730
aI335240
aI339610
aI343360
aI344300
aI346180
aI351470
aI331710
aI354850
aI368900
aI351030
aI355920
aI306130
aI363970
aI364050
aI397620
aI369040
aI373110
aI378100
aI381210
aI382300
aI383560
aI384960
aI385310
aI385400
aI386360
aI388870
aI392050
aI392870
aI385200
aI395980
aI410590
aI397580
aI400240
aI400250
aI407150
aI407750
aI412880
aI280790
aI416270
aI422100
aI422250
aI428430
aI432150
aI434010
aI434250
aI244930
aI444090
aI447850
aI447880
aI448640
aI449220
aI457930
aI457940
aI207140
aI466730
aI473580
aI473630
aI473640
aI473650
aI476480
aI485220
aI485310
aI486340
aI486820
aI487220
aI518800
aI526790
aI533150
aI542340
aI489520
aI550900
aI252850
aI562270
aI576440
aI463150
aa(lp2426
I570
aaa(lp2427
V76561198372028881
p2428
aI2
a(lp2429
I433850
aa(lp2430
aa(lp2431
V76561198368711018
p2432
aI21
a(lp2433
I21100
aI230410
aI730
aI291550
aI319630
aI530620
aa(lp2434
I440
aaa(lp2435
V76561198297386819
p2436
aI9
a(lp2437
I220
aI227300
aI264710
aI271590
aI730
aI433850
aa(lp2438
aa(lp2439
V76561198272997862
p2440
aI30
a(lp2441
I4000
aI242720
aI248570
aI224260
aI271570
aI304930
aI730
aI346900
aI356640
aI291550
aI280790
aI427270
aI444090
aa(lp2442
I440
aaa(lp2443
V76561198076479073
p2444
aI0
a(lp2445
ag2442
aa(lp2446
V76561198303789950
p2447
aI0
a(lp2448
ag2442
aa(lp2449
V76561198374812629
p2450
aI3
a(lp2451
I730
aI230410
aa(lp2452
aa(lp2453
V76561198278601480
p2454
aI11
a(lp2455
I730
aI271590
aI295110
aI433850
aa(lp2456
aa(lp2457
V76561198350759245
p2458
aI3
a(lp2459
I730
aa(lp2460
aa(lp2461
V76561198271045415
p2462
aI60
a(lp2463
I224260
aI301520
aI302830
aI304050
aI304930
aI730
aI335240
aI346900
aI349700
aI363970
aI291550
aI391460
aI412470
aI280790
aI424280
aI444090
aI466910
aI397060
aI568810
aa(lp2464
I440
aaa(lp2465
V76561198280346252
p2466
aI10
a(lp2467
I282660
aI730
aI335330
aI442080
aI578080
aa(lp2468
I570
aaa(lp2469
V76561198350505548
p2470
aI1
a(lp2471
I730
aa(lp2472
aa(lp2473
V76561198383795347
p2474
aI2
a(lp2475
I433850
aa(lp2476
aa(lp2477
V76561198077514680
p2478
aI7
a(lp2479
I10
aI730
aa(lp2480
I440
aI570
aaa(lp2481
V76561198345900299
p2482
aI73
a(lp2483
I46500
aI46510
aI730
aI1900
aI227300
aI218620
aI252950
aI265300
aI271590
aI287140
aI289090
aI321040
aI322500
aI275100
aI292030
aI381210
aI433850
aI379720
aI469980
aI359550
aI460930
aa(lp2484
aa(lp2485
V76561198145115420
p2486
aI19
a(lp2487
I12120
aI38450
aI20920
aI219740
aI322330
aI250260
aI265930
aI282800
aI730
aI376570
aI391540
aa(lp2488
I440
aI570
aaa(lp2489
V76561198386022128
p2490
aI3
a(lp2491
I730
aa(lp2492
aa(lp2493
V76561198380594103
p2494
aI1
a(lp2495
I730
aa(lp2496
aa(lp2497
V76561198137100647
p2498
aI70
a(lp2499
I4000
aI49520
aI202970
aI202990
aI212910
aI107900
aI109600
aI113400
aI203290
aI218230
aI230410
aI272350
aI209870
aI259020
aI224260
aI253710
aI273110
aI286940
aI107410
aI304930
aI291480
aI730
aI337950
aI356670
aI369200
aI291550
aI280790
aI444090
aI442080
aI513650
aI555570
aI436520
aI506540
aa(lp2500
I24200
aaa(lp2501
V76561198325525290
p2502
aI13
a(lp2503
I242760
aI270850
aI250400
aI730
aI444090
aI459510
aa(lp2504
aa(lp2505
V76561198371213060
p2506
aI2
a(lp2507
I433850
aa(lp2508
aa(lp2509
V76561198317248171
p2510
aI12
a(lp2511
I300
aI218620
aI271590
aI321040
aI730
aI375960
aI252950
aI454350
aa(lp2512
aa(lp2513
V76561198302075127
p2514
aI8
a(lp2515
I291550
aI444090
aI537180
aa(lp2516
I570
aaa(lp2517
V76561198321066035
p2518
aI1
a(lp2519
I730
aa(lp2520
aa(lp2521
V76561198312906081
p2522
aI49
a(lp2523
I4760
aI19900
aI3900
aI1930
aI204080
aI224220
aI234670
aI263420
aI271590
aI289090
aI294040
aI321150
aI10
aI730
aI340820
aI371570
aI382120
aI388120
aI390970
aI377160
aI439910
aI487220
aI491170
aI252850
aI9480
aa(lp2524
aa(lp2525
V76561198367902994
p2526
aI2
a(lp2527
I433850
aa(lp2528
aa(lp2529
V76561198388096770
p2530
aI2
a(lp2531
I433850
aa(lp2532
aa(lp2533
V76561198312061553
p2534
aI9
a(lp2535
I4000
aI242760
aI304050
aI730
aI550040
aa(lp2536
aa(lp2537
V76561198386919452
p2538
aI2
a(lp2539
I433850
aa(lp2540
aa(lp2541
V76561198343242475
p2542
aI9
a(lp2543
I304930
aI227940
aI730
aa(lp2544
aa(lp2545
V76561198033730898
p2546
aI23
a(lp2547
I42700
aI42710
aI42680
aI42690
aI730
aI113400
aI236390
aI107410
aI218620
aI252490
aI221100
aI550
aI295110
aI433850
aI351290
aa(lp2548
I570
aaa(lp2549
V76561198371909875
p2550
aI2
a(lp2551
I433850
aa(lp2552
aa(lp2553
V76561198371982532
p2554
aI2
a(lp2555
I433850
aa(lp2556
aa(lp2557
V76561197990037214
p2558
aI27
a(lp2559
I10
aI730
aI550
aI304930
aI24240
aa(lp2560
I570
aaa(lp2561
V76561198358577572
p2562
aI1
a(lp2563
I730
aa(lp2564
aa(lp2565
V76561198273555577
p2566
aI3
a(lp2567
I730
aa(lp2568
aa(lp2569
V76561198347945027
p2570
aI3
a(lp2571
I317250
aI730
aa(lp2572
I570
aaa(lp2573
V76561198181491994
p2574
aI3
a(lp2575
I730
aa(lp2576
I570
aaa(lp2577
V76561198149610605
p2578
aI11
a(lp2579
I550
aa(lp2580
I570
aaa(lp2581
V76561198334388927
p2582
aI3
a(lp2583
a(lp2584
I570
aaa(lp2585
V76561198265057500
p2586
aI45
a(lp2587
I8190
aI227300
aI291210
aI298240
aI304050
aI304930
aI227940
aI321040
aI730
aI335240
aI291550
aI264120
aI444090
aI459510
aI578310
aI506540
aa(lp2588
I440
aI259080
aaa(lp2589
V76561198370006612
p2590
aI0
a(lp2591
ag2588
aa(lp2592
V76561198293489232
p2593
aI8
a(lp2594
I230410
aI304930
aI730
aI444090
aa(lp2595
aa(lp2596
V76561198109759791
p2597
aI37
a(lp2598
I1250
aI550
aI12210
aI12220
aI230410
aI8870
aI242760
aI270550
aI251570
aI286690
aI287390
aI730
aI280790
aa(lp2599
I440
aI570
aaa(lp2600
V76561198156655444
p2601
aI33
a(lp2602
I224260
aI304930
aI730
aa(lp2603
I440
aI570
aaa(lp2604
V76561198375596611
p2605
aI2
a(lp2606
I433850
aa(lp2607
aa(lp2608
V76561198375719550
p2609
aI3
a(lp2610
I730
aI438040
aI550900
aa(lp2611
aa(lp2612
V76561198314764252
p2613
aI37
a(lp2614
I24960
aI113400
aI230410
aI203160
aI252950
aI221100
aI271590
aI304050
aI321040
aI321400
aI323370
aI730
aI346110
aI407530
aI291550
aI393420
aI420790
aI444090
aI442080
aI502550
aI537180
aI489520
aI506540
aa(lp2615
aa(lp2616
V76561198354706134
p2617
aI4
a(lp2618
I219740
aI433850
aa(lp2619
aa(lp2620
V76561198198346054
p2621
aI3
a(lp2622
I730
aa(lp2623
aa(lp2624
V76561198283930773
p2625
aI17
a(lp2626
I730
aI438040
aI466910
aa(lp2627
aa(lp2628
V76561198354337535
p2629
aI1
a(lp2630
I730
aa(lp2631
aa(lp2632
V76561198169002798
p2633
aI24
a(lp2634
I4000
aI104700
aI218620
aI252950
aI271590
aI301520
aI302830
aI304050
aI304930
aI313160
aI227940
aI730
aI346110
aI407530
aI236110
aI438040
aI447020
aI550010
aa(lp2635
I440
aI259080
aaa(lp2636
V76561198244148550
p2637
aI28
a(lp2638
I218620
aI252490
aI252950
aI271590
aI304930
aI227940
aI323850
aI730
aI346110
aI349700
aI393420
aI444090
aa(lp2639
I570
aaa(lp2640
V76561198376403661
p2641
aI1
a(lp2642
I730
aa(lp2643
aa(lp2644
V76561198293862460
p2645
aI10
a(lp2646
I47870
aI227300
aI271590
aI227940
aI730
aa(lp2647
aa(lp2648
V76561198356593931
p2649
aI14
a(lp2650
I225840
aI381210
aI420790
aI474750
aI8500
aI436520
aI582500
aa(lp2651
I570
aaa(lp2652
V76561198364094898
p2653
aI32
a(lp2654
I730
aa(lp2655
aa(lp2656
V76561198379854465
p2657
aI4
a(lp2658
a(lp2659
aa(lp2660
V76561198371648990
p2661
aI2
a(lp2662
I393420
aa(lp2663
aa(lp2664
V76561198356073211
p2665
aI5
a(lp2666
I274920
aI730
aI584210
aI460930
aa(lp2667
aa(lp2668
V76561198192247170
p2669
aI57
a(lp2670
I4000
aI105600
aI24240
aI41070
aI50300
aI115320
aI219150
aI55230
aI203140
aI224260
aI203160
aI43160
aI242760
aI220240
aI218620
aI235600
aI252330
aI209170
aI242050
aI243470
aI304050
aI304930
aI206420
aI226560
aI730
aI301910
aI299360
aI377160
aI359550
aI447040
aI71340
aI9480
aa(lp2671
I440
aI570
aI1840
aaa(lp2672
V76561198383115501
p2673
aI0
a(lp2674
ag2671
aa(lp2675
V76561198353727327
p2676
aI5
a(lp2677
I10
aI730
aa(lp2678
aa(lp2679
V76561198219616417
p2680
aI3
a(lp2681
I431960
aa(lp2682
I570
aaa(lp2683
V76561198368341199
p2684
aI4
a(lp2685
I730
aa(lp2686
aa(lp2687
V76561198159166671
p2688
aI35
a(lp2689
I550
aI24960
aI253710
aI218620
aI271590
aI433850
aI304930
aI227940
aI321040
aI730
aI444090
aa(lp2690
I440
aaa(lp2691
V76561198352899760
p2692
aI2
a(lp2693
I730
aa(lp2694
I440
aaa(lp2695
V76561198365913158
p2696
aI2
a(lp2697
I4000
aI730
aa(lp2698
aa(lp2699
V76561198359089373
p2700
aI3
a(lp2701
I433850
aa(lp2702
aa(lp2703
V76561198104118203
p2704
aI674
a(lp2705
I4000
aI17390
aI17410
aI41100
aI550
aI8190
aI33930
aI8930
aI70100
aI70110
aI8980
aI47870
aI42910
aI48190
aI70000
aI620
aI105600
aI20920
aI7600
aI46500
aI46510
aI22230
aI209520
aI104900
aI113200
aI204300
aI209080
aI730
aI214560
aI204360
aI219150
aI219640
aI57690
aI201790
aI1930
aI55230
aI220240
aI45740
aI45770
aI227300
aI99900
aI113400
aI218230
aI236390
aI272350
aI39000
aI214420
aI248570
aI253710
aI256410
aI224580
aI34870
aI224220
aI222660
aI225420
aI219190
aI234940
aI222730
aI206190
aI35720
aI242760
aI233250
aI244890
aI206420
aI246420
aI243780
aI218620
aI233840
aI222880
aI252950
aI253650
aI253900
aI253980
aI224860
aI255870
aI242050
aI257750
aI204880
aI259740
aI252150
aI261490
aI262280
aI263060
aI263280
aI264140
aI265300
aI267900
aI270050
aI270090
aI271570
aI275080
aI275470
aI278590
aI279720
aI283230
aI283290
aI285010
aI351030
aI285070
aI285090
aI285580
aI286360
aI287680
aI289090
aI270550
aI292570
aI293180
aI294040
aI294230
aI295110
aI433850
aI295930
aI296510
aI297000
aI297020
aI238460
aI299460
aI301190
aI301200
aI301520
aI301750
aI303390
aI304460
aI238090
aI250400
aI306410
aI307070
aI307230
aI91200
aI236730
aI251530
aI252170
aI294750
aI311690
aI314410
aI265590
aI314700
aI317710
aI318430
aI252970
aI321040
aI321110
aI321150
aI321360
aI321400
aI322500
aI322970
aI323850
aI239140
aI24240
aI329950
aI331720
aI10
aI240
aI331790
aI333120
aI333930
aI334070
aI277950
aI322330
aI337420
aI337630
aI252490
aI250900
aI339470
aI340300
aI340310
aI340320
aI340520
aI340650
aI340830
aI340820
aI340220
aI343100
aI343360
aI344300
aI344750
aI345440
aI346010
aI346900
aI347510
aI347560
aI287290
aI342240
aI351470
aI350810
aI352400
aI331710
aI354850
aI368900
aI355920
aI357900
aI202090
aI360970
aI361190
aI363490
aI363970
aI104200
aI263980
aI315430
aI341500
aI369290
aI219740
aI371420
aI371570
aI292030
aI372970
aI373110
aI374410
aI375010
aI375460
aI375510
aI377310
aI377760
aI378100
aI380840
aI382120
aI382300
aI383030
aI383330
aI383580
aI385070
aI385080
aI385200
aI395980
aI410590
aI432150
aI386940
aI388870
aI389160
aI306040
aI314020
aI355150
aI391070
aI391560
aI391660
aI392050
aI392820
aI392870
aI395170
aI416270
aI431270
aI397580
aI398710
aI398850
aI399430
aI407750
aI457930
aI457940
aI473580
aI473620
aI473630
aI473640
aI473650
aI486340
aI400240
aI400250
aI400510
aI403560
aI403900
aI406970
aI410210
aI236110
aI412170
aI412600
aI415960
aI416020
aI416170
aI460660
aI418070
aI418180
aI422100
aI422250
aI423710
aI428430
aI428950
aI431250
aI433340
aI434010
aI434250
aI435800
aI437920
aI438010
aI438030
aI438080
aI438180
aI439910
aI236870
aI443420
aI444090
aI444220
aI444480
aI446380
aI447850
aI447880
aI462370
aI516700
aI447890
aI448000
aI448470
aI448640
aI449200
aI449220
aI449300
aI449530
aI449630
aI448070
aI451880
aI453100
aI453820
aI453850
aI454200
aI454690
aI454890
aI370770
aI457710
aI457820
aI461010
aI461880
aI461890
aI463100
aI463110
aI463210
aI463220
aI463710
aI463930
aI464960
aI466730
aI466840
aI467000
aI467010
aI467950
aI468490
aI468930
aI469730
aI469890
aI473470
aI473510
aI473560
aI473670
aI474910
aI476480
aI480480
aI382050
aI485220
aI485310
aI485330
aI485390
aI485570
aI486150
aI486360
aI486540
aI486820
aI486880
aI487180
aI487220
aI487590
aI489220
aI48000
aI490820
aI491650
aI493650
aI493700
aI493710
aI493780
aI496500
aI496680
aI496690
aI497050
aI498660
aI499420
aI273350
aI501690
aI502140
aI503820
aI504750
aI505210
aI507390
aI508170
aI508180
aI508290
aI509110
aI509220
aI509570
aI509840
aI512640
aI512300
aI513610
aI513620
aI513780
aI514970
aI515470
aI515690
aI516840
aI518800
aI520530
aI521230
aI526540
aI526790
aI527750
aI527760
aI527770
aI528510
aI528660
aI533330
aI533820
aI535690
aI535760
aI538590
aI539440
aI540020
aI541370
aI489520
aI545410
aI545700
aI546450
aI546980
aI546990
aI554530
aI556280
aI556870
aI557680
aI559500
aI252850
aI562270
aI563120
aI567280
aI567290
aI567580
aI575490
aI576440
aI463150
aI581620
aI208140
aI582280
aI583760
aI584210
aI586380
aI586620
aI586960
aI351940
aI375230
aI236150
aa(lp2706
I440
aI570
aI630
aI259080
aaa(lp2707
V76561198365354896
p2708
aI28
a(lp2709
I730
aa(lp2710
aa(lp2711
V76561198375580872
p2712
aI17
a(lp2713
I730
aI550900
aI506540
aa(lp2714
I440
aaa(lp2715
V76561198115634376
p2716
aI7
a(lp2717
I730
aI388410
aa(lp2718
I570
aaa(lp2719
V76561198294814755
p2720
aI3
a(lp2721
I730
aa(lp2722
aa(lp2723
V76561198134715154
p2724
aI158
a(lp2725
I4000
aI12200
aI550
aI32430
aI620
aI72850
aI108710
aI205100
aI219640
aI223470
aI227300
aI230410
aI224260
aI8870
aI242760
aI218620
aI222880
aI252490
aI252950
aI253330
aI49520
aI221910
aI265930
aI278360
aI295110
aI433850
aI304930
aI238090
aI311340
aI314020
aI241930
aI327890
aI24240
aI289650
aI730
aI333930
aI335240
aI319630
aI350640
aI322330
aI292030
aI381210
aI386360
aI225540
aI359550
aI428690
aI427730
aI438740
aI444090
aI379720
aI234630
aI48000
aI273350
aI530620
aI562220
aI578080
aa(lp2726
I440
aI570
aaa(lp2727
V76561197967942667
p2728
aI24
a(lp2729
I10
aI238960
aI224260
aI321040
aI238590
aI24240
aI730
aa(lp2730
I570
aaa(lp2731
V76561198379256161
p2732
aI2
a(lp2733
I326460
aI730
aa(lp2734
aa(lp2735
V76561198320191883
p2736
aI15
a(lp2737
I227940
aI730
aI459510
aa(lp2738
aa(lp2739
V76561198186119157
p2740
aI24
a(lp2741
I12120
aI220240
aI227300
aI272350
aI270880
aI291480
aI730
aI280790
aI427730
aI444090
aa(lp2742
I440
aaa(lp2743
V76561198365886466
p2744
aI31
a(lp2745
I433850
aa(lp2746
aa(lp2747
V76561198300923145
p2748
aI4
a(lp2749
a(lp2750
aa(lp2751
V76561198084178204
p2752
aI12
a(lp2753
I207890
aI231670
aI295270
aI304930
aI730
aI378120
aI459510
aa(lp2754
aa(lp2755
V76561198368312033
p2756
aI1
a(lp2757
I730
aa(lp2758
aa(lp2759
V76561198385693403
p2760
aI2
a(lp2761
I433850
aa(lp2762
aa(lp2763
V76561198282064207
p2764
aI0
a(lp2765
ag2762
aa(lp2766
V76561198354101821
p2767
aI0
a(lp2768
ag2762
aa(lp2769
V76561198371963316
p2770
aI2
a(lp2771
I730
aa(lp2772
I570
aaa(lp2773
V76561198387747962
p2774
aI2
a(lp2775
I433850
aa(lp2776
aa(lp2777
V76561198347593492
p2778
aI2
a(lp2779
I730
aI378370
aa(lp2780
aa(lp2781
V76561198073243229
p2782
aI606
a(lp2783
I4000
aI12100
aI17470
aI29800
aI35140
aI34270
aI50620
aI462780
aI8930
aI70100
aI7520
aI72400
aI21100
aI620
aI104200
aI92100
aI20920
aI46500
aI50130
aI96100
aI55230
aI9200
aI110800
aI204180
aI204100
aI108800
aI108710
aI20500
aI55110
aI12210
aI209080
aI50650
aI730
aI215510
aI200260
aI7510
aI41000
aI41010
aI41070
aI1930
aI227300
aI223850
aI99900
aI224220
aI43160
aI35450
aI91310
aI216250
aI253940
aI253980
aI107410
aI238910
aI257830
aI258010
aI242700
aI238430
aI252150
aI262280
aI263060
aI263980
aI264300
aI218640
aI270550
aI550
aI8850
aI8870
aI409710
aI409720
aI271570
aI273770
aI222880
aI239160
aI279720
aI282800
aI282880
aI283390
aI284710
aI284730
aI284850
aI284930
aI284950
aI351030
aI285010
aI285070
aI285090
aI289090
aI289890
aI291010
aI291390
aI292410
aI292570
aI292620
aI293180
aI294020
aI294040
aI295690
aI297020
aI298600
aI299460
aI301200
aI301540
aI301640
aI301750
aI302790
aI303390
aI306040
aI306350
aI306410
aI63380
aI307070
aI308000
aI273500
aI314020
aI314450
aI314700
aI277950
aI315060
aI315430
aI317250
aI318220
aI319830
aI8190
aI203160
aI321040
aI321150
aI321400
aI322970
aI326120
aI327410
aI327680
aI329950
aI331710
aI354850
aI368900
aI432150
aI331720
aI331790
aI332360
aI218620
aI332790
aI333120
aI334070
aI339110
aI339470
aI340070
aI340650
aI341310
aI341500
aI340820
aI343360
aI343780
aI12120
aI271590
aI344130
aI344300
aI344750
aI345120
aI345220
aI342020
aI346950
aI347560
aI349500
aI351470
aI351490
aI350810
aI354860
aI355150
aI355920
aI357070
aI357280
aI357290
aI357780
aI357900
aI358080
aI338530
aI359810
aI360170
aI360380
aI360970
aI362610
aI363490
aI363970
aI296830
aI366440
aI366760
aI366890
aI397620
aI368990
aI369040
aI370090
aI370510
aI371570
aI371670
aI372830
aI373110
aI375460
aI375510
aI375620
aI274560
aI377290
aI378100
aI380580
aI382120
aI382240
aI382300
aI383030
aI383330
aI383580
aI385070
aI385080
aI385200
aI395980
aI410590
aI386140
aI387840
aI388390
aI388870
aI313020
aI364050
aI389700
aI391070
aI391260
aI391660
aI391420
aI392050
aI392820
aI392870
aI393790
aI394540
aI395170
aI396160
aI397500
aI416270
aI431270
aI397700
aI397980
aI398680
aI398710
aI399430
aI399580
aI399790
aI400240
aI400250
aI400370
aI400510
aI400740
aI403560
aI403900
aI403740
aI405950
aI406090
aI406310
aI406730
aI340300
aI340310
aI371420
aI407230
aI407680
aI407740
aI407750
aI410210
aI388410
aI410560
aI412170
aI412600
aI414290
aI416020
aI416080
aI416170
aI460660
aI416350
aI418070
aI414070
aI422100
aI422250
aI423710
aI424830
aI425150
aI427780
aI428630
aI428430
aI428950
aI429280
aI429700
aI431740
aI433110
aI433850
aI434010
aI434250
aI434420
aI434570
aI434610
aI438010
aI438030
aI438080
aI438180
aI439250
aI439910
aI440730
aI440760
aI441870
aI443420
aI444090
aI444220
aI444480
aI365590
aI447850
aI447880
aI462370
aI516700
aI448070
aI448440
aI448640
aI448780
aI449200
aI449220
aI449630
aI449680
aI451880
aI453670
aI453810
aI454200
aI454890
aI455710
aI370770
aI457820
aI457930
aI457940
aI505440
aI461010
aI461640
aI461910
aI462060
aI462030
aI463210
aI463220
aI463350
aI463520
aI463550
aI463620
aI464960
aI466730
aI466790
aI466840
aI467000
aI467370
aI467460
aI469730
aI473470
aI473520
aI473560
aI473580
aI473620
aI473630
aI473640
aI473650
aI473710
aI475220
aI476480
aI477290
aI485220
aI485310
aI485330
aI485370
aI485580
aI485740
aI485870
aI486340
aI486360
aI486820
aI487180
aI487220
aI487270
aI487590
aI489220
aI484950
aI489520
aI491000
aI491080
aI491250
aI496500
aI498660
aI500570
aI501690
aI502090
aI503820
aI504490
aI504980
aI506670
aI509240
aI509840
aI510330
aI512640
aI514970
aI515690
aI515910
aI518800
aI520530
aI521630
aI522570
aI526790
aI527770
aI531240
aI533150
aI533620
aI533910
aI535690
aI535760
aI537360
aI538590
aI539450
aI539720
aI540020
aI540900
aI541370
aI542340
aI542730
aI543320
aI543420
aI546400
aI546450
aI546980
aI547960
aI554530
aI556160
aI557680
aI559500
aI252850
aI562240
aI562270
aI562520
aI566990
aI575140
aI575490
aI575700
aI575840
aI576440
aI576470
aI463150
aI581610
aI581620
aI582280
aI583490
aI585720
aI586380
aI375230
aI595340
aI595440
aI600600
aI601530
aI603750
aI498320
aI219640
aI618030
aI204300
aI236150
aa(lp2784
aa(lp2785
V76561198359671873
p2786
aI2
a(lp2787
I433850
aI439700
aa(lp2788
aa(lp2789
V76561198370399739
p2790
aI3
a(lp2791
I304930
aI730
aa(lp2792
aa(lp2793
V76561198330080446
p2794
aI0
a(lp2795
ag2792
aa(lp2796
V76561198328045948
p2797
aI10
a(lp2798
I42690
aI282660
aI730
aI433850
aa(lp2799
aa(lp2800
V76561198370150211
p2801
aI4
a(lp2802
I730
aI444090
aa(lp2803
aa(lp2804
V76561198366431820
p2805
aI1
a(lp2806
I730
aa(lp2807
aa(lp2808
V76561198335704357
p2809
aI5
a(lp2810
I730
aI433850
aa(lp2811
aa(lp2812
V76561198376623980
p2813
aI1
a(lp2814
I730
aa(lp2815
aa(lp2816
V76561198176218398
p2817
aI38
a(lp2818
I4000
aI223710
aI248570
aI224260
aI273110
aI301520
aI304050
aI304930
aI317470
aI730
aI346120
aI346330
aI355180
aI380600
aI417890
aI444090
aa(lp2819
I440
aI630
aaa(lp2820
V76561198214978095
p2821
aI110
a(lp2822
I6060
aI48190
aI104200
aI20920
aI201870
aI204340
aI227300
aI109400
aI35450
aI233130
aI48700
aI285160
aI296830
aI311870
aI318100
aI327680
aI730
aI335240
aI373290
aI387930
aI401190
aI420740
aI433850
aI436390
aI444090
aI448780
aI454150
aI459510
aI461720
aI463210
aI207140
aI473670
aI50130
aI508170
aI515310
aa(lp2823
I24200
aaa(lp2824
V76561198262840066
p2825
aI10
a(lp2826
I4000
aI230410
aI286940
aI300080
aI227940
aI730
aI298630
aI431240
aI489520
aa(lp2827
aa(lp2828
V76561198309291444
p2829
aI46
a(lp2830
I24960
aI230410
aI209870
aI273110
aI301520
aI304050
aI304930
aI730
aI335240
aI363970
aI322330
aI291550
aI280790
aI433350
aI433800
aI444090
aI530900
aa(lp2831
aa(lp2832
V76561198387941458
p2833
aI2
a(lp2834
I433850
aa(lp2835
aa(lp2836
V76561198360351765
p2837
aI4
a(lp2838
I304930
aa(lp2839
I440
aI570
aaa(lp2840
V76561198185498721
p2841
aI29
a(lp2842
I239220
aI298630
aI302830
aI304050
aI304930
aI313690
aI730
aI340540
aI386360
aI291550
aI433850
aI444090
aI205890
aa(lp2843
I440
aI570
aaa(lp2844
V76561198361558053
p2845
aI2
a(lp2846
I730
aI244930
aa(lp2847
aa(lp2848
V76561198225130904
p2849
aI77
a(lp2850
I4000
aI113400
aI224260
aI301520
aI304050
aI304930
aI730
aI346110
aI407530
aI355840
aI369200
aI391460
aI280790
aI444090
aI555570
aa(lp2851
aa(lp2852
V76561198379248576
p2853
aI0
a(lp2854
ag2851
aa(lp2855
V76561198351087036
p2856
aI12
a(lp2857
I218230
aI252950
aI271590
aI301520
aI730
aI359550
aI444090
aI8500
aa(lp2858
aa(lp2859
V76561198078772699
p2860
aI2
a(lp2861
I730
aa(lp2862
aa(lp2863
V76561198379350164
p2864
aI5
a(lp2865
I730
aa(lp2866
aa(lp2867
V76561198005088741
p2868
aI32
a(lp2869
I287680
aI730
aI275850
aI456610
aa(lp2870
aa(lp2871
V76561198375335158
p2872
aI2
a(lp2873
I433850
aa(lp2874
aa(lp2875
V76561198386319493
p2876
aI16
a(lp2877
I730
aa(lp2878
aa(lp2879
V76561198359620320
p2880
aI4
a(lp2881
I301520
aI730
aa(lp2882
aa(lp2883
V76561198161919918
p2884
aI32
a(lp2885
I10
aI730
aa(lp2886
I570
aaa(lp2887
V76561198384189391
p2888
aI3
a(lp2889
I730
aa(lp2890
aa(lp2891
V76561198330701862
p2892
aI6
a(lp2893
I431960
aI433850
aa(lp2894
aa(lp2895
V76561198382005444
p2896
aI2
a(lp2897
I433850
aa(lp2898
aa(lp2899
V76561198323380594
p2900
aI5
a(lp2901
I433850
aa(lp2902
aa(lp2903
V76561198303819931
p2904
aI10
a(lp2905
I12120
aI2700
aI271590
aI322170
aI730
aI227300
aa(lp2906
aa(lp2907
V76561198203355204
p2908
aI42
a(lp2909
I4000
aI550
aI45740
aI72850
aI204360
aI202990
aI219150
aI239350
aI49520
aI221910
aI271590
aI274900
aI213670
aI227940
aI211420
aI730
aI335300
aI250900
aI298630
aI274270
aI374320
aI433850
aI433950
aI252950
aa(lp2910
I440
aaa(lp2911
V76561198381210417
p2912
aI1
a(lp2913
I730
aa(lp2914
aa(lp2915
V76561198323692283
p2916
aI8
a(lp2917
I730
aI363970
aa(lp2918
aa(lp2919
V76561198131834324
p2920
aI27
a(lp2921
I4000
aI10180
aI10190
aI105600
aI207230
aI236390
aI224260
aI242760
aI107410
aI301520
aI304930
aI312990
aI316010
aI223650
aI730
aI346110
aI322330
aI234140
aI444090
aI48000
aI555570
aI219640
aa(lp2922
aa(lp2923
V76561198342567622
p2924
aI3
a(lp2925
I730
aa(lp2926
aa(lp2927
V76561198387314176
p2928
aI1
a(lp2929
I730
aa(lp2930
aa(lp2931
V76561198343657538
p2932
aI8
a(lp2933
I304930
aI730
aI444090
aI534500
aa(lp2934
I440
aaa(lp2935
V76561198069741932
p2936
aI18
a(lp2937
I240
aI4000
aI8930
aI105600
aI730
aI11610
aI200210
aI49520
aI304050
aI227940
aI250900
aI322330
aa(lp2938
I440
aaa(lp2939
V76561198340067145
p2940
aI3
a(lp2941
I240
aI730
aa(lp2942
aa(lp2943
V76561198385978729
p2944
aI3
a(lp2945
I730
aa(lp2946
aa(lp2947
V76561198316115922
p2948
aI12
a(lp2949
I227300
aI730
aI335240
aI459510
aa(lp2950
aa(lp2951
V76561198353829776
p2952
aI11
a(lp2953
I240
aI550
aI252950
aI271590
aI730
aa(lp2954
aa(lp2955
V76561198364156303
p2956
aI2
a(lp2957
a(lp2958
I570
aaa(lp2959
V76561198361148219
p2960
aI3
a(lp2961
I274920
aI730
aI340750
aa(lp2962
aa(lp2963
V76561198386782127
p2964
aI2
a(lp2965
I433850
aa(lp2966
aa(lp2967
V76561198329017828
p2968
aI21
a(lp2969
I273110
aI730
aI218620
aI346900
aI444090
aI557810
aa(lp2970
I440
aI570
aaa(lp2971
V76561198365309145
p2972
aI1
a(lp2973
I730
aa(lp2974
aa(lp2975
V76561198356317240
p2976
aI2
a(lp2977
I730
aa(lp2978
aa(lp2979
V76561198383217815
p2980
aI2
a(lp2981
I433850
aa(lp2982
aa(lp2983
V76561198308393425
p2984
aI5
a(lp2985
I304930
aI730
aI444090
aa(lp2986
aa(lp2987
V76561198291757673
p2988
aI12
a(lp2989
I304930
aI730
aI361420
aI555570
aa(lp2990
I440
aaa(lp2991
V76561198382409987
p2992
aI0
a(lp2993
ag2990
aa(lp2994
V76561198322994741
p2995
aI3
a(lp2996
I433850
aI730
aa(lp2997
aa(lp2998
V76561198128182457
p2999
aI38
a(lp3000
I4000
aI10090
aI17390
aI24720
aI550
aI10680
aI47890
aI22600
aI105600
aI201790
aI230410
aI252490
aI252950
aI257750
aI265930
aI213670
aI227940
aI730
aI363970
aI431240
aa(lp3001
aa(lp3002
V76561198136841695
p3003
aI76
a(lp3004
I4000
aI41000
aI564310
aI550
aI20920
aI72850
aI41070
aI730
aI41010
aI109600
aI208090
aI230410
aI224260
aI261430
aI273110
aI286940
aI304050
aI304930
aI63380
aI291480
aI24240
aI444090
aI555570
aa(lp3005
I440
aaa(lp3006
V76561198727366245
p3007
aI2
a(lp3008
I730
aa(lp3009
aa(lp3010
V76561198381794469
p3011
aI2
a(lp3012
I433850
aa(lp3013
aa(lp3014
V76561198343419603
p3015
aI2
a(lp3016
I730
aa(lp3017
aa(lp3018
V76561198372670616
p3019
aI2
a(lp3020
I433850
aa(lp3021
aa(lp3022
V76561198168026631
p3023
aI8
a(lp3024
I730
aI444090
aa(lp3025
I570
aaa(lp3026
V76561198359513352
p3027
aI1
a(lp3028
I730
aa(lp3029
aa(lp3030
V76561198721283391
p3031
aI4
a(lp3032
I304930
aI730
aI444090
aa(lp3033
aa(lp3034
V76561198294927759
p3035
aI5
a(lp3036
I252490
aI730
aa(lp3037
aa(lp3038
V76561198379460525
p3039
aI3
a(lp3040
I730
aa(lp3041
aa(lp3042
V76561198380344826
p3043
aI4
a(lp3044
I730
aI506540
aa(lp3045
aa(lp3046
V76561198302988500
p3047
aI21
a(lp3048
I730
aI291550
aI391460
aI444090
aa(lp3049
I440
aaa(lp3050
V76561198382631529
p3051
aI1
a(lp3052
I730
aa(lp3053
aa(lp3054
V76561198373247497
p3055
aI3
a(lp3056
I730
aI444090
aa(lp3057
aa(lp3058
V76561198257525793
p3059
aI8
a(lp3060
I4000
aI730
aI427730
aa(lp3061
I440
aaa(lp3062
V76561198376320965
p3063
aI2
a(lp3064
I433850
aa(lp3065
aa(lp3066
V76561198374571963
p3067
aI4
a(lp3068
I730
aa(lp3069
aa(lp3070
V76561198372178800
p3071
aI2
a(lp3072
I433850
aa(lp3073
aa(lp3074
V76561198377987414
p3075
aI2
a(lp3076
I433850
aa(lp3077
aa(lp3078
V76561198317924757
p3079
aI3
a(lp3080
a(lp3081
I570
aaa(lp3082
V76561198380774699
p3083
aI5
a(lp3084
I271590
aI730
aI433850
aa(lp3085
aa(lp3086
V76561198385182399
p3087
aI2
a(lp3088
I578080
aa(lp3089
aa(lp3090
V76561198379039364
p3091
aI2
a(lp3092
I271590
aI730
aa(lp3093
aa(lp3094
V76561198355631299
p3095
aI1
a(lp3096
I730
aa(lp3097
aa(lp3098
V76561198314620639
p3099
aI38
a(lp3100
I304050
aI304930
aI227940
aI730
aa(lp3101
I570
aaa(lp3102
V76561198377121978
p3103
aI3
a(lp3104
I730
aI335240
aa(lp3105
aa(lp3106
V76561198274188082
p3107
aI71
a(lp3108
I113400
aI238960
aI206480
aI246280
aI9880
aI730
aI335240
aI346900
aI363970
aI291550
aI429790
aI438040
aI444090
aI475630
aI485650
aI510630
aI489520
aa(lp3109
I440
aI24200
aaa(lp3110
V76561198385275817
p3111
aI1
a(lp3112
I730
aa(lp3113
aa(lp3114
V76561198214298485
p3115
aI6
a(lp3116
I730
aI271590
aI234140
aI433850
aI439700
aa(lp3117
aa(lp3118
V76561198225540552
p3119
aI0
a(lp3120
ag3117
aa(lp3121
V76561198208360341
p3122
aI9
a(lp3123
I730
aI304930
aI346900
aa(lp3124
I440
aaa(lp3125
V76561198368830040
p3126
aI3
a(lp3127
I730
aa(lp3128
aa(lp3129
V76561198365973146
p3130
aI2
a(lp3131
I433850
aa(lp3132
aa(lp3133
V76561198282717690
p3134
aI18
a(lp3135
I227300
aI730
aa(lp3136
aa(lp3137
V76561198320868355
p3138
aI1
a(lp3139
I730
aa(lp3140
aa(lp3141
V76561198024264347
p3142
aI26
a(lp3143
I730
aI550
aI620
aI10
aI219640
aI4000
aI295110
aI206210
aI243870
aI227940
aa(lp3144
I570
aaa(lp3145
V76561198353634270
p3146
aI12
a(lp3147
I730
aI339610
aI550900
aI304390
aa(lp3148
aa(lp3149
V76561198369642732
p3150
aI3
a(lp3151
I730
aa(lp3152
aa(lp3153
V76561198078524449
p3154
aI9
a(lp3155
I730
aa(lp3156
I440
aI570
aaa(lp3157
V76561198360289014
p3158
aI2
a(lp3159
I730
aa(lp3160
I570
aaa(lp3161
V76561198368077403
p3162
aI8
a(lp3163
I433850
aa(lp3164
aa(lp3165
V76561198356488243
p3166
aI17
a(lp3167
I730
aI385200
aI395980
aI410590
aI432150
aI397620
aI416270
aI431270
aI368900
aI447880
aI462370
aI546450
aI550900
aI562270
aI575490
aa(lp3168
aa(lp3169
V76561198367924886
p3170
aI1
a(lp3171
I730
aa(lp3172
aa(lp3173
V76561198081245871
p3174
aI17
a(lp3175
I304050
aI304930
aI227940
aI333930
aI311210
aI444090
aI273350
aa(lp3176
I440
aaa(lp3177
V76561198110089965
p3178
aI8
a(lp3179
I227300
aI433850
aa(lp3180
aa(lp3181
V76561198382424622
p3182
aI2
a(lp3183
I433850
aa(lp3184
aa(lp3185
V76561198128885772
p3186
aI12
a(lp3187
I730
aa(lp3188
I440
aI570
aaa(lp3189
V76561198296541146
p3190
aI27
a(lp3191
I4000
aI105600
aI113200
aI57690
aI223470
aI200210
aI274560
aI730
aI219150
aI274170
aI346900
aI232090
aI386360
aI398710
aI436530
aI365590
aI457520
aI564710
aa(lp3192
I570
aaa(lp3193
V76561198338734832
p3194
aI0
a(lp3195
ag3192
aa(lp3196
V76561198346048242
p3197
aI0
a(lp3198
ag3192
aa(lp3199
V76561198128511452
p3200
aI62
a(lp3201
I4000
aI1250
aI24860
aI620
aI105600
aI202970
aI202990
aI212910
aI51100
aI208090
aI236390
aI224260
aI216250
aI10
aI80
aI220
aI240
aI300
aI380
aI400
aI420
aI550
aI730
aI273110
aI222900
aI304930
aI6880
aI8190
aI24240
aI346120
aI322330
aI391460
aI588430
aa(lp3202
I440
aI570
aI17520
aI259080
aaa(lp3203
V76561198295416522
p3204
aI25
a(lp3205
I12210
aI224260
aI219640
aI304930
aI232890
aI730
aI391460
aI444090
aa(lp3206
I570
aaa(lp3207
V76561198372682440
p3208
aI1
a(lp3209
I730
aa(lp3210
aa(lp3211
V76561198332157996
p3212
aI7
a(lp3213
I730
aI335240
aI459510
aa(lp3214
I259080
aaa(lp3215
V76561198213342999
p3216
aI14
a(lp3217
I730
aI444090
aI459510
aa(lp3218
I440
aaa(lp3219
V76561198378701584
p3220
aI2
a(lp3221
I433850
aa(lp3222
aa(lp3223
V76561198354697764
p3224
aI3
a(lp3225
I730
aa(lp3226
aa(lp3227
V76561198374133467
p3228
aI4
a(lp3229
I730
aI444090
aa(lp3230
aa(lp3231
V76561198078841564
p3232
aI36
a(lp3233
I202170
aI49520
aI220240
aI113400
aI209870
aI218620
aI206420
aI730
aI376570
aI444090
aI402570
aa(lp3234
I440
aI570
aaa(lp3235
V76561198328592229
p3236
aI10
a(lp3237
a(lp3238
I570
aaa(lp3239
V76561198102258238
p3240
aI2
a(lp3241
a(lp3242
I570
aaa(lp3243
V76561198323246313
p3244
aI92
a(lp3245
I7510
aI20510
aI304050
aI304930
aI322170
aI10
aI240
aI730
aI252490
aI355180
aI299360
aI415030
aI444090
aI542340
aI596170
aI600450
aa(lp3246
I570
aaa(lp3247
V76561198381440060
p3248
aI3
a(lp3249
I433850
aa(lp3250
aa(lp3251
V76561198309699349
p3252
aI0
a(lp3253
ag3250
aa(lp3254
V76561198155829524
p3255
aI11
a(lp3256
I227300
aI252950
aI301520
aI730
aI333930
aI219640
aa(lp3257
aa(lp3258
V76561198341589024
p3259
aI9
a(lp3260
I304930
aI730
aI407250
aI444090
aI214850
aI550900
aa(lp3261
aa(lp3262
V76561198121849919
p3263
aI32
a(lp3264
I4000
aI24240
aI109600
aI253980
aI304050
aI304930
aI730
aI407250
aa(lp3265
I259080
aaa(lp3266
V76561198101825763
p3267
aI0
a(lp3268
ag3265
aa(lp3269
V76561198374030723
p3270
aI3
a(lp3271
I433850
aI578080
aa(lp3272
aa(lp3273
V76561198372112680
p3274
aI1
a(lp3275
I730
aa(lp3276
aa(lp3277
V76561198382372365
p3278
aI4
a(lp3279
I433850
aa(lp3280
aa(lp3281
V76561198340531106
p3282
aI2
a(lp3283
I730
aa(lp3284
aa(lp3285
V76561198129972452
p3286
aI0
a(lp3287
ag3284
aa(lp3288
V76561198127597784
p3289
aI23
a(lp3290
I4000
aI51100
aI209870
aI202090
aI224260
aI107410
aI304050
aI304930
aI730
aI346110
aI299360
aI225540
aI433850
aa(lp3291
I440
aaa(lp3292
V76561198350524876
p3293
aI13
a(lp3294
I4000
aI400
aI620
aI204880
aI230410
aI363970
aI391540
aI427520
aI489830
aa(lp3295
aa(lp3296
V76561198345267213
p3297
aI2
a(lp3298
I252950
aI730
aa(lp3299
aa(lp3300
V76561198375022379
p3301
aI1
a(lp3302
I730
aa(lp3303
aa(lp3304
V76561198331768388
p3305
aI2
a(lp3306
I730
aI489520
aa(lp3307
aa(lp3308
V76561198376353450
p3309
aI0
a(lp3310
ag3307
aa(lp3311
V76561198303809519
p3312
aI0
a(lp3313
ag3307
aa(lp3314
V76561198354914663
p3315
aI5
a(lp3316
I730
aa(lp3317
aa(lp3318
V76561198111174699
p3319
aI14
a(lp3320
I321040
aI730
aa(lp3321
aa(lp3322
V76561198384278638
p3323
aI2
a(lp3324
I730
aa(lp3325
aa(lp3326
V76561198348769017
p3327
aI2
a(lp3328
I433850
aa(lp3329
aa(lp3330
V76561198387933077
p3331
aI0
a(lp3332
ag3329
aa(lp3333
V76561198267250742
p3334
aI30
a(lp3335
I4000
aI730
aI428690
aI444090
aa(lp3336
aa(lp3337
V76561198724300714
p3338
aI2
a(lp3339
I433850
aa(lp3340
aa(lp3341
V76561198370503360
p3342
aI2
a(lp3343
I433850
aa(lp3344
aa(lp3345
V76561198386389384
p3346
aI1
a(lp3347
I730
aa(lp3348
aa(lp3349
V76561198299249274
p3350
aI0
a(lp3351
ag3348
aa(lp3352
V76561198376952228
p3353
aI3
a(lp3354
I431960
aI433850
aa(lp3355
aa(lp3356
V76561198308682709
p3357
aI2
a(lp3358
I730
aI459510
aa(lp3359
aa(lp3360
V76561198309848087
p3361
aI8
a(lp3362
I209870
aI252950
aI271590
aI304930
aI730
aa(lp3363
I440
aaa(lp3364
V76561198198954263
p3365
aI7
a(lp3366
I730
aa(lp3367
aa(lp3368
V76561198379374680
p3369
aI2
a(lp3370
I433850
aa(lp3371
aa(lp3372
V76561198371025860
p3373
aI4
a(lp3374
I730
aI346110
aa(lp3375
aa(lp3376
V76561198216372400
p3377
aI2
a(lp3378
a(lp3379
I570
aaa(lp3380
V76561198372104705
p3381
aI2
a(lp3382
a(lp3383
I570
aaa(lp3384
V76561198387022540
p3385
aI1
a(lp3386
I730
aa(lp3387
aa(lp3388
V76561198360499766
p3389
aI2
a(lp3390
I433850
aa(lp3391
aa(lp3392
V76561198274164702
p3393
aI6
a(lp3394
I730
aI339610
aa(lp3395
aa(lp3396
V76561198320923664
p3397
aI17
a(lp3398
I113400
aI730
aI299360
aI359550
aI506540
aa(lp3399
aa(lp3400
V76561198320587270
p3401
aI0
a(lp3402
ag3399
aa(lp3403
V76561198375968791
p3404
aI2
a(lp3405
I433850
aa(lp3406
aa(lp3407
V76561198383178448
p3408
aI2
a(lp3409
I730
aa(lp3410
aa(lp3411
V76561198372916760
p3412
aI1
a(lp3413
I730
aa(lp3414
aa(lp3415
V76561198361364353
p3416
aI7
a(lp3417
I304930
aI730
aI444090
aI588430
aa(lp3418
I440
aI570
aaa(lp3419
V76561198329349912
p3420
aI7
a(lp3421
I730
aI444090
aa(lp3422
aa(lp3423
V76561198373149918
p3424
aI1
a(lp3425
I730
aa(lp3426
aa(lp3427
V76561198211291437
p3428
aI10
a(lp3429
I4000
aI730
aI218620
aI550
aa(lp3430
I570
aaa(lp3431
V76561198371692046
p3432
aI32
a(lp3433
I550
aI431960
aI433850
aa(lp3434
aa(lp3435
V76561198377698823
p3436
aI3
a(lp3437
I433850
aa(lp3438
aa(lp3439
V76561198363151241
p3440
aI2
a(lp3441
I730
aa(lp3442
aa(lp3443
V76561198211981557
p3444
aI18
a(lp3445
I304930
aI730
aI389570
aI466910
aa(lp3446
I440
aaa(lp3447
V76561198358211929
p3448
aI1
a(lp3449
I730
aa(lp3450
aa(lp3451
V76561198106112992
p3452
aI5
a(lp3453
a(lp3454
I570
aaa(lp3455
V76561198370506706
p3456
aI2
a(lp3457
I433850
aa(lp3458
aa(lp3459
V76561198373409806
p3460
aI2
a(lp3461
I433850
aI439700
aa(lp3462
aa(lp3463
V76561198349635671
p3464
aI2
a(lp3465
a(lp3466
I570
aaa(lp3467
V76561198373298982
p3468
aI2
a(lp3469
I433850
aa(lp3470
aa(lp3471
V76561198347240941
p3472
aI5
a(lp3473
I431960
aI433850
aa(lp3474
I570
aaa(lp3475
V76561198388830867
p3476
aI1
a(lp3477
I730
aa(lp3478
aa(lp3479
V76561198356843352
p3480
aI0
a(lp3481
ag3478
aa(lp3482
V76561198384304733
p3483
aI1
a(lp3484
I730
aa(lp3485
aa(lp3486
V76561198371332724
p3487
aI2
a(lp3488
I433850
aa(lp3489
aa(lp3490
V76561198084183551
p3491
aI51
a(lp3492
I42690
aI104700
aI113400
aI212370
aI236390
aI209870
aI252490
aI304930
aI730
aI333930
aI307780
aI4700
aa(lp3493
I440
aaa(lp3494
V76561198307509342
p3495
aI10
a(lp3496
I10
aI301520
aI730
aI444090
aa(lp3497
aa(lp3498
V76561198057882621
p3499
aI50
a(lp3500
I4000
aI8170
aI620
aI209080
aI730
aI99900
aI109400
aI113400
aI208030
aI230410
aI236390
aI39000
aI233250
aI12120
aI12210
aI251570
aI277450
aI304930
aI346900
aI322330
aa(lp3501
I440
aI570
aI630
aI17500
aI17700
aI24200
aaa(lp3502
V76561198380774380
p3503
aI1
a(lp3504
I578080
aa(lp3505
aa(lp3506
V76561198253479976
p3507
aI41
a(lp3508
I113400
aI304930
aI730
aI421960
aI433850
aI506540
aa(lp3509
aa(lp3510
V76561198650354489
p3511
aI3
a(lp3512
I730
aa(lp3513
aa(lp3514
V76561198343651626
p3515
aI0
a(lp3516
ag3513
aa(lp3517
V76561198369559736
p3518
aI2
a(lp3519
I433850
aa(lp3520
aa(lp3521
V76561198355672595
p3522
aI4
a(lp3523
I431960
aI433850
aa(lp3524
aa(lp3525
V76561198316932212
p3526
aI1
a(lp3527
I730
aa(lp3528
aa(lp3529
V76561198257283054
p3530
aI6
a(lp3531
I251570
aI235540
aI433850
aI379720
aa(lp3532
aa(lp3533
V76561197995497709
p3534
aI10
a(lp3535
I730
aI389430
aI510630
aa(lp3536
aa(lp3537
V76561198071037428
p3538
aI8
a(lp3539
I322330
aI374040
aI431960
aa(lp3540
I570
aaa(lp3541
V76561198374158917
p3542
aI1
a(lp3543
I730
aa(lp3544
aa(lp3545
V76561198362481469
p3546
aI2
a(lp3547
I730
aI459510
aa(lp3548
aa(lp3549
V76561198367606910
p3550
aI1
a(lp3551
I730
aa(lp3552
aa(lp3553
V76561198262120607
p3554
aI5
a(lp3555
I730
aI506540
aa(lp3556
I570
aaa(lp3557
V76561198384348019
p3558
aI2
a(lp3559
I433850
aa(lp3560
aa(lp3561
V76561198258699447
p3562
aI34
a(lp3563
I252490
aI252950
aI200170
aI730
aI380600
aI407250
aI433850
aI444090
aI456610
aI385760
aa(lp3564
aa(lp3565
V76561198330133244
p3566
aI17
a(lp3567
I243870
aI209870
aI224600
aI227940
aI730
aI381210
aI444090
aI555570
aa(lp3568
aa(lp3569
V76561198037499009
p3570
aI0
a(lp3571
ag3568
aa(lp3572
V76561198325875526
p3573
aI2
a(lp3574
I730
aa(lp3575
aa(lp3576
V76561198378982638
p3577
aI1
a(lp3578
I730
aa(lp3579
aa(lp3580
V76561198380212657
p3581
aI2
a(lp3582
I433850
aa(lp3583
aa(lp3584
V76561198343186922
p3585
aI13
a(lp3586
a(lp3587
I570
aaa(lp3588
V76561198030342997
p3589
aI1
a(lp3590
I730
aa(lp3591
aa(lp3592
V76561198150432152
p3593
aI5
a(lp3594
I730
aI433850
aa(lp3595
I570
aaa(lp3596
V76561198360119866
p3597
aI2
a(lp3598
I346110
aa(lp3599
aa(lp3600
V76561198321009308
p3601
aI47
a(lp3602
I550
aI253710
aI273110
aI301520
aI304930
aI730
aI332070
aI299360
aI420970
aI438040
aI444090
aI459510
aI378370
aI550900
aI444200
aa(lp3603
aa(lp3604
V76561198377154291
p3605
aI2
a(lp3606
I730
aa(lp3607
aa(lp3608
V76561198259283049
p3609
aI61
a(lp3610
I550
aI24960
aI223470
aI55230
aI227300
aI218620
aI209000
aI278360
aI48700
aI730
aI346560
aI360640
aI407120
aI407250
aI466500
aI50130
aI541180
aa(lp3611
aa(lp3612
V76561198087796495
p3613
aI60
a(lp3614
I240
aI208500
aI24010
aI227300
aI230410
aI239030
aI252950
aI270880
aI271590
aI304050
aI730
aI381210
aI387990
aI273350
aa(lp3615
I440
aaa(lp3616
V76561198309533796
p3617
aI37
a(lp3618
I550
aI11020
aI206210
aI208090
aI230410
aI301520
aI302830
aI304050
aI304930
aI217490
aI730
aI338180
aI385770
aI299360
aI273350
aa(lp3619
I440
aI570
aaa(lp3620
V76561198371019994
p3621
aI10
a(lp3622
I271590
aI730
aI311210
aI433850
aI359550
aa(lp3623
I570
aaa(lp3624
V76561198364898905
p3625
aI32
a(lp3626
I433850
aI295110
aa(lp3627
aa(lp3628
V76561198131982489
p3629
aI11
a(lp3630
I226320
aI730
aI444090
aI453480
aa(lp3631
I440
aI570
aaa(lp3632
V76561198135718151
p3633
aI0
a(lp3634
ag3631
aa(lp3635
V76561198585114917
p3636
aI1
a(lp3637
I730
aa(lp3638
aa(lp3639
V76561198376580696
p3640
aI1
a(lp3641
I730
aa(lp3642
aa(lp3643
V76561198261737131
p3644
aI2
a(lp3645
I730
aa(lp3646
aa(lp3647
V76561198272834760
p3648
aI9
a(lp3649
I304930
aI730
aI368990
aI407250
aI438080
aI466910
aa(lp3650
aa(lp3651
V76561198107976100
p3652
aI29
a(lp3653
I433850
aa(lp3654
aa(lp3655
V76561198326398509
p3656
aI33
a(lp3657
I730
aa(lp3658
aa(lp3659
V76561198350416038
p3660
aI4
a(lp3661
I730
aI252490
aI433850
aa(lp3662
aa(lp3663
V76561198344567055
p3664
aI5
a(lp3665
I730
aa(lp3666
aa(lp3667
V76561198071158341
p3668
aI14
a(lp3669
I91310
aI730
aa(lp3670
aa(lp3671
V76561198212305559
p3672
aI43
a(lp3673
I4000
aI227300
aI263280
aI216250
aI301520
aI302830
aI304930
aI321040
aI730
aI10
aI100
aI240
aI335240
aI393420
aI438040
aI466910
aI482920
aI48000
aI530330
aa(lp3674
aa(lp3675
V76561198380166798
p3676
aI3
a(lp3677
I433850
aa(lp3678
aa(lp3679
V76561198191983728
p3680
aI51
a(lp3681
I104900
aI219640
aI242720
aI226320
aI252490
aI252950
aI107410
aI222880
aI295110
aI299740
aI316010
aI238320
aI223650
aI274940
aI730
aI333930
aI337950
aI346110
aI306130
aI361800
aI381210
aI383120
aI393420
aI287920
aI393380
aI420290
aI359550
aI436520
aI440900
aI444090
aI504370
aI534500
aI607200
aa(lp3682
I440
aaa(lp3683
V76561198374082732
p3684
aI2
a(lp3685
I433850
aa(lp3686
aa(lp3687
V76561198358084186
p3688
aI2
a(lp3689
I730
aa(lp3690
aa(lp3691
V76561198353131910
p3692
aI0
a(lp3693
ag3690
aa(lp3694
V76561198209994617
p3695
aI10
a(lp3696
I730
aI407250
aa(lp3697
aa(lp3698
V76561198375570092
p3699
aI28
a(lp3700
I730
aI433850
aa(lp3701
aa(lp3702
V76561198359453332
p3703
aI11
a(lp3704
I271590
aI730
aa(lp3705
aa(lp3706
V76561198367023385
p3707
aI1
a(lp3708
I730
aa(lp3709
aa(lp3710
V76561198239472694
p3711
aI24
a(lp3712
I47870
aI105600
aI203160
aI252950
aI730
aa(lp3713
I570
aaa(lp3714
V76561198300916600
p3715
aI4
a(lp3716
I322330
aI381210
aI433850
aa(lp3717
aa(lp3718
V76561198364576708
p3719
aI23
a(lp3720
I550
aI730
aI427270
aI550900
aa(lp3721
I440
aaa(lp3722
V76561198383171386
p3723
aI0
a(lp3724
ag3721
aa(lp3725
V76561198323823526
p3726
aI10
a(lp3727
I271590
aI431960
aI391220
aI433850
aI439700
aI540840
aa(lp3728
aa(lp3729
V76561198365011838
p3730
aI2
a(lp3731
I433850
aa(lp3732
aa(lp3733
V76561198280702716
p3734
aI3
a(lp3735
I730
aa(lp3736
aa(lp3737
V76561198375856110
p3738
aI2
a(lp3739
I730
aa(lp3740
aa(lp3741
V76561198251701288
p3742
aI5
a(lp3743
I304930
aI730
aI527450
aa(lp3744
aa(lp3745
V76561198498857050
p3746
aI14
a(lp3747
I208090
aI230410
aI304930
aI730
aI386360
aI444090
aa(lp3748
I440
aaa(lp3749
V76561198345457182
p3750
aI38
a(lp3751
I730
aI282070
aa(lp3752
aa(lp3753
V76561198288067772
p3754
aI0
a(lp3755
ag3752
aa(lp3756
V76561198289030405
p3757
aI11
a(lp3758
I302830
aI730
aI291550
aI466910
aa(lp3759
I24200
aaa(lp3760
V76561198074788349
p3761
aI33
a(lp3762
I4000
aI550
aI620
aI105600
aI24240
aI113200
aI204360
aI205100
aI219640
aI265630
aI246280
aI235600
aI252490
aI269210
aI270550
aI271590
aI238460
aI301520
aI304050
aI304930
aI312530
aI317360
aI730
aI333930
aI389570
aI444090
aI504770
aa(lp3763
I440
aaa(lp3764
V76561198198810514
p3765
aI10
a(lp3766
I550
aI271590
aI239140
aI730
aa(lp3767
aa(lp3768
V76561198305193110
p3769
aI4
a(lp3770
I113400
aI730
aa(lp3771
I440
aaa(lp3772
V76561198146416458
p3773
aI2
a(lp3774
a(lp3775
I570
aaa(lp3776
V76561198373868492
p3777
aI1
a(lp3778
I730
aa(lp3779
aa(lp3780
V76561198371142429
p3781
aI27
a(lp3782
I433850
aa(lp3783
aa(lp3784
V76561198264679572
p3785
aI31
a(lp3786
I10
aI100
aI240
aI8190
aI50300
aI730
aI220240
aI230410
aI242760
aI273110
aI286940
aI304930
aI326460
aI333930
aI351290
aa(lp3787
I259080
aaa(lp3788
V76561198360799912
p3789
aI11
a(lp3790
I301520
aI381210
aI433850
aI558100
aa(lp3791
aa(lp3792
V76561198303515816
p3793
aI6
a(lp3794
I550
aI431960
aI433850
aa(lp3795
aa(lp3796
V76561198216830553
p3797
aI14
a(lp3798
I33910
aI227300
aI253710
aI304930
aI305260
aI313160
aI730
aI516750
aa(lp3799
I440
aaa(lp3800
V76561198367022386
p3801
aI11
a(lp3802
I304930
aI730
aI391460
aa(lp3803
aa(lp3804
V76561198383515858
p3805
aI3
a(lp3806
I730
aI311210
aa(lp3807
aa(lp3808
V76561198163330790
p3809
aI2
a(lp3810
I273110
aI730
aa(lp3811
aa(lp3812
V76561198138322944
p3813
aI0
a(lp3814
ag3811
aa(lp3815
V76561198380244166
p3816
aI1
a(lp3817
I730
aa(lp3818
aa(lp3819
V76561198386729253
p3820
aI2
a(lp3821
I730
aa(lp3822
aa(lp3823
V76561198195333517
p3824
aI48
a(lp3825
I6060
aI212070
aI230410
aI400
aI730
aI4000
aI620
aI105600
aI233610
aI304050
aI249130
aI322170
aI304930
aI291480
aI333930
aI264710
aI424280
aI506610
aI374570
aI503350
aI568090
aI291550
aI444090
aI238320
aI222880
aI589590
aI594550
aa(lp3826
I440
aaa(lp3827
V76561198382799324
p3828
aI0
a(lp3829
ag3826
aa(lp3830
V76561198347125544
p3831
aI2
a(lp3832
I730
aa(lp3833
aa(lp3834
V76561198148924603
p3835
aI28
a(lp3836
I4000
aI218620
aI252490
aI252950
aI261430
aI227300
aI265930
aI271590
aI291480
aI326460
aI730
aI311210
aI433850
aI444090
aI273350
aa(lp3837
I440
aaa(lp3838
V76561198351404323
p3839
aI15
a(lp3840
I11020
aI212070
aI218230
aI291150
aI221100
aI273110
aI301520
aI304050
aI730
aI382850
aI436520
aa(lp3841
aa(lp3842
V76561198013266790
p3843
aI2
a(lp3844
I730
aI529780
aa(lp3845
aa(lp3846
V76561198308340882
p3847
aI11
a(lp3848
I12110
aI227300
aI209000
aI730
aI234140
aI407250
aI459510
aa(lp3849
aa(lp3850
V76561198381660040
p3851
aI2
a(lp3852
I730
aa(lp3853
aa(lp3854
V76561198355530009
p3855
aI5
a(lp3856
I304930
aI730
aa(lp3857
I570
aaa(lp3858
V76561198349290406
p3859
aI2
a(lp3860
I730
aa(lp3861
aa(lp3862
V76561198268563842
p3863
aI16
a(lp3864
I550
aI304930
aI227940
aI730
aI35450
aI291550
aI390670
aI391460
aa(lp3865
aa(lp3866
V76561198385886077
p3867
aI3
a(lp3868
I227300
aI730
aa(lp3869
aa(lp3870
V76561198273828529
p3871
aI22
a(lp3872
I225840
aI321040
aI730
aI459510
aI534500
aa(lp3873
aa(lp3874
V76561198268576034
p3875
aI88
a(lp3876
I550
aI202970
aI202990
aI212910
aI223470
aI113400
aI271590
aI213670
aI304930
aI227940
aI321040
aI730
aI333930
aI346900
aI349700
aI291550
aI407530
aI431240
aI434570
aI244930
aI444090
aI457330
aI495890
aI273350
aI545650
aI578080
aa(lp3877
I440
aI570
aaa(lp3878
V76561198084070134
p3879
aI28
a(lp3880
I286940
aI304930
aI315640
aI730
aI346900
aI363970
aI385770
aa(lp3881
I440
aI570
aaa(lp3882
V76561198370478436
p3883
aI6
a(lp3884
I730
aI444640
aa(lp3885
aa(lp3886
V76561198378862494
p3887
aI2
a(lp3888
I433850
aa(lp3889
aa(lp3890
V76561198285788678
p3891
aI12
a(lp3892
I227300
aI252950
aI730
aI407250
aa(lp3893
aa(lp3894
V76561198383171909
p3895
aI4
a(lp3896
I730
aI444090
aa(lp3897
aa(lp3898
V76561198354993492
p3899
aI10
a(lp3900
I236390
aI730
aI444090
aa(lp3901
I570
aaa(lp3902
V76561198139294458
p3903
aI4
a(lp3904
I63380
aI730
aa(lp3905
aa(lp3906
V76561198333082108
p3907
aI9
a(lp3908
I227940
aI48700
aI730
aa(lp3909
aa(lp3910
V76561198168522007
p3911
aI39
a(lp3912
I4000
aI550
aI105600
aI47780
aI102700
aI218620
aI270550
aI296470
aI304930
aI322170
aI214490
aI730
aI323470
aI335240
aI335330
aI346110
aI346120
aI389570
aI563560
aa(lp3913
aa(lp3914
V76561198297938357
p3915
aI4
a(lp3916
I433850
aa(lp3917
aa(lp3918
V76561198317524091
p3919
aI2
a(lp3920
I730
aa(lp3921
aa(lp3922
V76561198381326603
p3923
aI3
a(lp3924
I730
aa(lp3925
aa(lp3926
V76561198195884773
p3927
aI15
a(lp3928
I10180
aI10190
aI550
aI304930
aI730
aI346900
aI363970
aa(lp3929
I440
aaa(lp3930
V76561198350965598
p3931
aI4
a(lp3932
I433850
aI434650
aa(lp3933
aa(lp3934
V76561198382031823
p3935
aI1
a(lp3936
I730
aa(lp3937
aa(lp3938
V76561198370586654
p3939
aI3
a(lp3940
I433850
aa(lp3941
aa(lp3942
V76561198204517765
p3943
aI20
a(lp3944
I207230
aI252950
aI301520
aI304930
aI730
aI291550
aI444090
aa(lp3945
aa(lp3946
V76561198318040238
p3947
aI2
a(lp3948
I433850
aI439700
aa(lp3949
aa(lp3950
V76561198375296210
p3951
aI4
a(lp3952
I730
aI550900
aa(lp3953
aa(lp3954
V76561198456501475
p3955
aI2
a(lp3956
I730
aa(lp3957
aa(lp3958
V76561198002361820
p3959
aI320
a(lp3960
I4000
aI320
aI10500
aI9450
aI15620
aI6020
aI34030
aI18820
aI8190
aI400
aI8930
aI7520
aI4540
aI475150
aI92800
aI321040
aI44340
aI70000
aI91200
aI105600
aI97000
aI11280
aI50130
aI80310
aI201570
aI65300
aI58610
aI203630
aI208140
aI228200
aI212680
aI108800
aI214850
aI214150
aI200510
aI218640
aI219640
aI7510
aI203140
aI218090
aI219150
aI214870
aI57690
aI1930
aI209190
aI34330
aI42910
aI227220
aI209270
aI220090
aI102700
aI212070
aI238960
aI272350
aI202090
aI228260
aI8870
aI220200
aI232050
aI220900
aI44350
aI233720
aI234940
aI236730
aI215690
aI65930
aI35450
aI72850
aI224420
aI242880
aI233250
aI239450
aI214950
aI218820
aI234390
aI214770
aI241620
aI218620
aI243780
aI203770
aI248310
aI47790
aI47830
aI242570
aI239820
aI251530
aI253980
aI257120
aI238010
aI258200
aI231720
aI94400
aI249130
aI40970
aI264690
aI264730
aI267980
aI268240
aI550
aI271670
aI271860
aI272470
aI275470
aI275490
aI278460
aI239160
aI282100
aI283230
aI283290
aI208520
aI284950
aI351030
aI286120
aI286360
aI287120
aI287340
aI258180
aI233290
aI292380
aI292410
aI293180
aI295930
aI296050
aI297020
aI297290
aI236830
aI298260
aI299260
aI301750
aI302010
aI303390
aI304930
aI4570
aI306660
aI63380
aI224600
aI307070
aI307350
aI227940
aI313020
aI314250
aI4760
aI222900
aI321150
aI301970
aI305050
aI24240
aI329380
aI730
aI325610
aI335430
aI277950
aI338760
aI344040
aI346900
aI255710
aI365300
aI364690
aI265930
aI375460
aI382240
aI385830
aI253030
aI398710
aI4700
aI407840
aI412170
aI427520
aI428430
aI264240
aI34270
aI563560
aa(lp3961
I440
aI630
aI8230
aaa(lp3962
V76561198355122081
p3963
aI1
a(lp3964
I730
aa(lp3965
aa(lp3966
V76561198381495779
p3967
aI4
a(lp3968
I433850
aa(lp3969
I570
aaa(lp3970
V76561198382752738
p3971
aI0
a(lp3972
ag3969
aa(lp3973
V76561198091622623
p3974
aI39
a(lp3975
I70
aI219640
aI113400
aI202090
aI252490
aI252950
aI253250
aI304930
aI730
aI335240
aI291550
aI221380
aI444090
aI550900
aa(lp3976
I440
aI570
aaa(lp3977
V76561198365098032
p3978
aI0
a(lp3979
ag3976
aa(lp3980
V76561198127981223
p3981
aI0
a(lp3982
ag3976
aa(lp3983
V76561198272454325
p3984
aI4
a(lp3985
I295110
aI362300
aI433850
aa(lp3986
aa(lp3987
V76561198374736781
p3988
aI1
a(lp3989
I730
aa(lp3990
aa(lp3991
V76561198075171045
p3992
aI64
a(lp3993
I2630
aI10190
aI32500
aI42680
aI42690
aI72850
aI730
aI113400
aI218230
aI236390
aI226320
aI203160
aI218620
aI209000
aI265300
aI221100
aI550
aI295110
aI433850
aI238090
aI291480
aI282070
aI346110
aI381210
aI386360
aI444090
aI360430
aI555570
aa(lp3994
I570
aI24200
aaa(lp3995
V76561198078213668
p3996
aI120
a(lp3997
I105600
aI109600
aI208090
aI230410
aI209870
aI248570
aI224220
aI252950
aI261430
aI286940
aI289780
aI304930
aI291480
aI9880
aI10
aI240
aI730
aI333930
aI39120
aI376570
aI444090
aI506540
aa(lp3998
I440
aI570
aaa(lp3999
V76561198376007080
p4000
aI5
a(lp4001
I4000
aI65540
aI730
aa(lp4002
aa(lp4003
V76561198102322110
p4004
aI4
a(lp4005
I433850
aa(lp4006
aa(lp4007
V76561198258686788
p4008
aI79
a(lp4009
I400
aI33620
aI33230
aI24960
aI8190
aI620
aI20920
aI24240
aI201870
aI72850
aI730
aI203140
aI219890
aI203160
aI224220
aI44350
aI235600
aI206420
aI255220
aI222880
aI297860
aI298520
aI321040
aI371510
aI269670
aI397570
aI225540
aI105450
aI221380
aa(lp4010
aa(lp4011
V76561198194690643
p4012
aI49
a(lp4013
I304930
aI730
aI339610
aI350810
aI351030
aI357280
aI381120
aI382120
aI400240
aI406090
aI407740
aI422100
aI447880
aI462370
aI516700
aI449630
aI457940
aI397620
aI460660
aI505440
aI476480
aI485220
aI486820
aI489220
aI503820
aI516230
aI535760
aI541370
aI489520
aI547960
aI554530
aI575490
aI576470
aI581620
aI586380
aI595340
aa(lp4014
I440
aaa(lp4015
V76561198380884540
p4016
aI1
a(lp4017
I730
aa(lp4018
aa(lp4019
V76561198380686942
p4020
aI2
a(lp4021
I433850
aa(lp4022
aa(lp4023
V76561198010238908
p4024
aI81
a(lp4025
I24720
aI42910
aI105600
aI104900
aI204360
aI200210
aI238960
aI239220
aI8870
aI219740
aI322330
aI91310
aI252490
aI550
aI271590
aI304050
aI315640
aI221380
aI730
aI319630
aI372000
aI200510
aI8930
aI379720
aI273350
aa(lp4026
I570
aaa(lp4027
V76561198319676566
p4028
aI9
a(lp4029
I730
aa(lp4030
aa(lp4031
V76561198090643705
p4032
aI6
a(lp4033
I107410
aI730
aI433850
aa(lp4034
I570
aaa(lp4035
V76561198376280749
p4036
aI4
a(lp4037
I433850
aI578080
aa(lp4038
aa(lp4039
V76561198226323468
p4040
aI4
a(lp4041
a(lp4042
I570
aaa(lp4043
V76561198277277690
p4044
aI17
a(lp4045
I271590
aI730
aI433850
aa(lp4046
aa(lp4047
V76561198381650070
p4048
aI1
a(lp4049
I730
aa(lp4050
aa(lp4051
V76561198351552756
p4052
aI1
a(lp4053
I730
aa(lp4054
aa(lp4055
V76561198563463499
p4056
aI1
a(lp4057
I730
aa(lp4058
aa(lp4059
V76561198273144615
p4060
aI10
a(lp4061
I218620
aI252490
aI304930
aI10
aI730
aa(lp4062
I570
aaa(lp4063
V76561198349466209
p4064
aI5
a(lp4065
I304930
aI730
aa(lp4066
aa(lp4067
V76561198235121740
p4068
aI3
a(lp4069
I433850
aa(lp4070
aa(lp4071
V76561198038314250
p4072
aI80
a(lp4073
I230410
aI236390
aI202090
aI730
aI222880
aI228200
aI231430
aI271590
aI390670
aI287920
aI299360
aI314000
aI310380
aI504370
aI402570
aI584210
aa(lp4074
I440
aI570
aaa(lp4075
V76561198379840893
p4076
aI2
a(lp4077
I730
aa(lp4078
aa(lp4079
V76561198289729023
p4080
aI5
a(lp4081
I730
aI459510
aI227300
aI242760
aa(lp4082
aa(lp4083
V76561198383692595
p4084
aI2
a(lp4085
I433850
aa(lp4086
aa(lp4087
V76561198370518650
p4088
aI14
a(lp4089
I227300
aI224260
aI271590
aI730
aI513650
aa(lp4090
aa(lp4091
V76561198139239942
p4092
aI66
a(lp4093
I550
aI202970
aI202990
aI212910
aI113400
aI12210
aI218620
aI263280
aI270880
aI222880
aI295110
aI433850
aI227300
aI238090
aI291480
aI313160
aI321040
aI221380
aI730
aI346110
aI252950
aI407250
aI427100
aI244210
aI518790
aI447020
aI578080
aI460930
aa(lp4094
aa(lp4095
V76561198365325634
p4096
aI5
a(lp4097
I206420
aI227940
aI730
aI588430
aa(lp4098
aa(lp4099
V76561198143771978
p4100
aI79
a(lp4101
I4000
aI730
aI39500
aI11020
aI253710
aI218620
aI49520
aI260410
aI267920
aI286940
aI301520
aI302830
aI304930
aI227940
aI317470
aI330000
aI335240
aI342980
aI346110
aI363970
aI372800
aI385770
aI299360
aI438040
aI444090
aI359550
aI533780
aI444200
aI555570
aa(lp4102
I440
aaa(lp4103
V76561198356464792
p4104
aI0
a(lp4105
ag4102
aa(lp4106
V76561198387792036
p4107
aI2
a(lp4108
I433850
aa(lp4109
aa(lp4110
V76561198293439162
p4111
aI18
a(lp4112
I271590
aI222880
aI730
aI346110
aI444090
aI530700
aI555570
aa(lp4113
aa(lp4114
V76561198379633937
p4115
aI6
a(lp4116
I730
aI431960
aa(lp4117
aa(lp4118
V76561198362125643
p4119
aI15
a(lp4120
I4000
aI108710
aI236390
aI271590
aI304050
aI304930
aI730
aI444090
aa(lp4121
I440
aI570
aaa(lp4122
V76561198306624136
p4123
aI12
a(lp4124
I433850
aI557400
aa(lp4125
I570
aaa(lp4126
V76561198144376358
p4127
aI149
a(lp4128
I70
aI4000
aI7940
aI10090
aI17410
aI10150
aI24840
aI550
aI8190
aI42700
aI42710
aI105450
aI10
aI240
aI730
aI227300
aI109600
aI203160
aI232010
aI12110
aI12120
aI12210
aI239030
aI239820
aI252490
aI40970
aI295110
aI304930
aI291480
aI287450
aI386360
aI389430
aI444090
aa(lp4129
I440
aI570
aaa(lp4130
V76561198367260925
p4131
aI2
a(lp4132
I730
aa(lp4133
aa(lp4134
V76561198369058932
p4135
aI1
a(lp4136
I730
aa(lp4137
aa(lp4138
V76561198135310453
p4139
aI26
a(lp4140
I272350
aI252490
aI107410
aI271590
aI227940
aI730
aI349700
aI351290
aI355840
aI359550
aI578080
aa(lp4141
I570
aaa(lp4142
V76561198139024685
p4143
aI6
a(lp4144
I730
aI444090
aa(lp4145
I570
aaa(lp4146
V76561198377381513
p4147
aI2
a(lp4148
I433850
aa(lp4149
aa(lp4150
V76561198356350371
p4151
aI19
a(lp4152
I286940
aI301520
aI304930
aI227940
aI333930
aI361420
aI393420
aI280790
aI433850
aI436520
aa(lp4153
aa(lp4154
V76561198331669444
p4155
aI282
a(lp4156
I3590
aI41070
aI730
aI224220
aI35450
aI231040
aI257990
aI263060
aI271550
aI271570
aI285010
aI351030
aI285090
aI292620
aI298830
aI298840
aI299460
aI303390
aI305640
aI308000
aI265590
aI314700
aI319230
aI275180
aI321040
aI232890
aI329950
aI331710
aI354850
aI368900
aI432150
aI331790
aI340650
aI344130
aI344750
aI346950
aI351470
aI350810
aI355920
aI357280
aI357900
aI358080
aI360970
aI362130
aI362610
aI364480
aI364640
aI364910
aI368250
aI369290
aI370710
aI373110
aI374830
aI378100
aI382120
aI383030
aI345180
aI385070
aI385080
aI385200
aI395980
aI410590
aI386360
aI386490
aI388870
aI389310
aI390290
aI391160
aI391660
aI392870
aI395170
aI399580
aI400240
aI400250
aI403570
aI404630
aI404640
aI406090
aI406970
aI407740
aI407750
aI412170
aI397620
aI416270
aI460660
aI418180
aI420000
aI420850
aI421810
aI421880
aI423710
aI428830
aI428430
aI429470
aI431250
aI431270
aI433850
aI434920
aI438010
aI438030
aI444290
aI444480
aI447850
aI447880
aI462370
aI516700
aI448640
aI449630
aI449680
aI451570
aI453820
aI454890
aI455710
aI455940
aI457480
aI457820
aI457930
aI457940
aI505440
aI461140
aI461710
aI461910
aI462960
aI463040
aI463210
aI463220
aI467000
aI467010
aI467370
aI468490
aI469980
aI473470
aI473580
aI473620
aI473630
aI473640
aI473650
aI473710
aI476480
aI485220
aI485310
aI485580
aI485730
aI486150
aI486340
aI487220
aI487270
aI488200
aI488580
aI489220
aI491250
aI491650
aI496500
aI498660
aI501690
aI501900
aI502140
aI503820
aI504490
aI508670
aI509220
aI509840
aI513510
aI515690
aI518800
aI522570
aI528300
aI533710
aI533820
aI537360
aI540020
aI540860
aI541370
aI542340
aI544870
aI489520
aI545280
aI545800
aI546400
aI546450
aI529760
aI546920
aI547960
aI550900
aI556120
aI556280
aI559500
aI252850
aI562430
aI563120
aI568720
aI574030
aI574620
aI575490
aI575720
aI576470
aI576560
aI581000
aI581030
aI581610
aI581620
aI581640
aI582280
aI583490
aI585830
aI586380
aI586970
aI589390
aI596650
aI603750
aI605470
aI611320
aa(lp4157
aa(lp4158
V76561198317547689
p4159
aI6
a(lp4160
I304930
aI730
aa(lp4161
aa(lp4162
V76561198346669508
p4163
aI59
a(lp4164
I4000
aI204360
aI301520
aI304930
aI730
aI363970
aI261570
aI391460
aI299360
aI424280
aI444090
aa(lp4165
I440
aaa(lp4166
V76561198370479787
p4167
aI6
a(lp4168
I433850
aa(lp4169
aa(lp4170
V76561198369103311
p4171
aI1
a(lp4172
I730
aa(lp4173
aa(lp4174
V76561198277553756
p4175
aI16
a(lp4176
I550
aI216250
aI304930
aI730
aI444090
aa(lp4177
I440
aI570
aaa(lp4178
V76561198366909262
p4179
aI0
a(lp4180
ag4177
aa(lp4181
V76561198384853608
p4182
aI2
a(lp4183
I433850
aa(lp4184
aa(lp4185
V76561198367476331
p4186
aI3
a(lp4187
I433850
aa(lp4188
aa(lp4189
V76561198308341458
p4190
aI7
a(lp4191
I271590
aI433850
aI295110
aa(lp4192
aa(lp4193
V76561198373171607
p4194
aI4
a(lp4195
I730
aI444090
aa(lp4196
I440
aaa(lp4197
V76561198361545479
p4198
aI2
a(lp4199
I304930
aI730
aa(lp4200
aa(lp4201
V76561198358370983
p4202
aI12
a(lp4203
I252490
aI730
aI444090
aa(lp4204
I570
aaa(lp4205
V76561198041417788
p4206
aI26
a(lp4207
I10180
aI10190
aI63950
aI202970
aI202990
aI212910
aI99900
aI212070
aI218620
aI273110
aI225840
aI304930
aI312990
aI730
aI355180
aI42120
aI578310
aI588430
aa(lp4208
I440
aI570
aaa(lp4209
V76561198309337838
p4210
aI7
a(lp4211
I253430
aI304930
aI730
aI444090
aa(lp4212
aa(lp4213
V76561198364367892
p4214
aI9
a(lp4215
I230410
aI730
aa(lp4216
I570
aaa(lp4217
V76561198382320901
p4218
aI2
a(lp4219
I730
aa(lp4220
I570
aaa(lp4221
V76561198243646388
p4222
aI6
a(lp4223
I730
aa(lp4224
aa(lp4225
V76561198307676707
p4226
aI7
a(lp4227
a(lp4228
I570
aaa(lp4229
V76561198372649601
p4230
aI2
a(lp4231
I433850
aa(lp4232
aa(lp4233
V76561198372932445
p4234
aI4
a(lp4235
I433850
aI295110
aa(lp4236
aa(lp4237
V76561198347354735
p4238
aI5
a(lp4239
I730
aa(lp4240
aa(lp4241
V76561198090075648
p4242
aI4
a(lp4243
I433850
aa(lp4244
I570
aaa(lp4245
V76561198381014087
p4246
aI2
a(lp4247
I433850
aa(lp4248
aa(lp4249
V76561198376283214
p4250
aI2
a(lp4251
I433850
aa(lp4252
aa(lp4253
V76561198373829817
p4254
aI2
a(lp4255
I433850
aI439700
aa(lp4256
aa(lp4257
V76561198379653348
p4258
aI1
a(lp4259
I730
aa(lp4260
aa(lp4261
V76561198271504215
p4262
aI2
a(lp4263
a(lp4264
I570
aaa(lp4265
V76561198384009663
p4266
aI1
a(lp4267
I730
aa(lp4268
aa(lp4269
V76561198368673199
p4270
aI1
a(lp4271
I730
aa(lp4272
aa(lp4273
V76561198313527023
p4274
aI34
a(lp4275
I219640
aI242760
aI218620
aI730
aI433850
aa(lp4276
aa(lp4277
V76561198072922384
p4278
aI12
a(lp4279
a(lp4280
I570
aaa(lp4281
V76561198153900660
p4282
aI11
a(lp4283
I550
aI233720
aI252950
aI304930
aI730
aI444090
aa(lp4284
I570
aaa(lp4285
V76561198366397349
p4286
aI7
a(lp4287
I730
aa(lp4288
aa(lp4289
V76561198258018928
p4290
aI191
a(lp4291
I91310
aI218620
aI250400
aI333930
aI349700
aI109600
aI206210
aI230410
aI304930
aI224600
aI4000
aI304050
aI299360
aI730
aI219640
aI242760
aI224260
aI202970
aI202990
aI212910
aI20920
aI346330
aI386360
aI444090
aa(lp4292
I440
aI570
aaa(lp4293
V76561198288018757
p4294
aI6
a(lp4295
I242760
aI252950
aI227940
aI730
aI555570
aa(lp4296
aa(lp4297
V76561198374548388
p4298
aI2
a(lp4299
I433850
aa(lp4300
aa(lp4301
V76561198373518296
p4302
aI1
a(lp4303
I730
aa(lp4304
aa(lp4305
V76561198369746606
p4306
aI11
a(lp4307
I236390
aI304930
aI730
aa(lp4308
aa(lp4309
V76561198272665083
p4310
aI4
a(lp4311
I730
aa(lp4312
aa(lp4313
V76561198372029193
p4314
aI3
a(lp4315
I433850
aa(lp4316
aa(lp4317
V76561198377727134
p4318
aI5
a(lp4319
I730
aI550900
aa(lp4320
aa(lp4321
V76561198359623219
p4322
aI0
a(lp4323
ag4320
aa(lp4324
V76561198351130065
p4325
aI30
a(lp4326
I730
aa(lp4327
aa(lp4328
V76561198366286537
p4329
aI2
a(lp4330
I433850
aa(lp4331
aa(lp4332
V76561198336271237
p4333
aI3
a(lp4334
I444090
aa(lp4335
I570
aaa(lp4336
V76561198347340033
p4337
aI27
a(lp4338
I230410
aI236390
aI301520
aI730
aI414530
aI444090
aI8500
aa(lp4339
I570
aaa(lp4340
V76561198382417566
p4341
aI1
a(lp4342
I730
aa(lp4343
aa(lp4344
V76561198337875607
p4345
aI6
a(lp4346
a(lp4347
I570
aaa(lp4348
V76561198099075867
p4349
aI9
a(lp4350
I730
aI225180
aI295270
aI282350
aI370240
aI379720
aI307780
aa(lp4351
aa(lp4352
V76561198367064553
p4353
aI0
a(lp4354
ag4351
aa(lp4355
V76561198089871830
p4356
aI48
a(lp4357
I24240
aI91310
aI230410
aI238960
aI243870
aI248570
aI202090
aI239220
aI246280
aI224540
aI207140
aI300040
aI304050
aI304930
aI250340
aI312990
aI268420
aI730
aI346900
aI355840
aI361630
aI320590
aI385770
aI359550
aI444090
aI482920
aI506540
aa(lp4358
I440
aI570
aI24200
aaa(lp4359
V76561198381040607
p4360
aI1
a(lp4361
I730
aa(lp4362
aa(lp4363
V76561198364011950
p4364
aI2
a(lp4365
I730
aa(lp4366
aa(lp4367
V76561197966973231
p4368
aI9
a(lp4369
I730
aa(lp4370
aa(lp4371
V76561198382047283
p4372
aI0
a(lp4373
ag4370
aa(lp4374
V76561198198888019
p4375
aI75
a(lp4376
I4000
aI550
aI218620
aI252950
aI295110
aI433850
aI730
aI346110
aI359550
aI365590
aI473650
aa(lp4377
I440
aaa(lp4378
V76561198306901664
p4379
aI3
a(lp4380
I321360
aI730
aI291550
aa(lp4381
aa(lp4382
V76561198385805648
p4383
aI1
a(lp4384
I730
aa(lp4385
aa(lp4386
V76561198258049310
p4387
aI15
a(lp4388
I550
aI227300
aI230410
aI236390
aI227940
aI730
aI444090
aa(lp4389
I570
aaa(lp4390
V76561198268111026
p4391
aI3
a(lp4392
I206420
aI730
aa(lp4393
aa(lp4394
V76561198199318678
p4395
aI12
a(lp4396
I730
aI251570
aI271590
aa(lp4397
I570
aaa(lp4398
V76561198332696537
p4399
aI11
a(lp4400
I252950
aI304050
aI730
aI433850
aa(lp4401
I440
aaa(lp4402
V76561198376721079
p4403
aI3
a(lp4404
I433850
aa(lp4405
aa(lp4406
V76561198355423091
p4407
aI4
a(lp4408
I433850
aI578080
aa(lp4409
aa(lp4410
V76561198317897925
p4411
aI12
a(lp4412
I4000
aI105600
aI286940
aI304930
aI730
aa(lp4413
I440
aaa(lp4414
V76561198384701086
p4415
aI1
a(lp4416
I730
aa(lp4417
aa(lp4418
V76561198259912503
p4419
aI8
a(lp4420
I291480
aI730
aa(lp4421
aa(lp4422
V76561198378950280
p4423
aI2
a(lp4424
I433850
aa(lp4425
aa(lp4426
V76561198334691038
p4427
aI13
a(lp4428
I219740
aI431960
aI433850
aI513560
aI322330
aa(lp4429
I570
aaa(lp4430
V76561198116775563
p4431
aI3
a(lp4432
a(lp4433
I570
aaa(lp4434
V76561198307416111
p4435
aI5
a(lp4436
I218620
aI304050
aI304930
aI730
aa(lp4437
aa(lp4438
V76561198339997212
p4439
aI8
a(lp4440
I4000
aI730
aI301520
aa(lp4441
aa(lp4442
V76561198347195614
p4443
aI7
a(lp4444
I730
aa(lp4445
I570
aaa(lp4446
V76561198378853980
p4447
aI2
a(lp4448
I730
aa(lp4449
aa(lp4450
V76561198381666056
p4451
aI2
a(lp4452
I433850
aa(lp4453
aa(lp4454
V76561198205026195
p4455
aI55
a(lp4456
I550
aI50620
aI462780
aI219640
aI295110
aI433850
aI316010
aI318220
aI302510
aI331710
aI354850
aI368900
aI432150
aI730
aI218620
aI346900
aI397620
aI385200
aI395980
aI410590
aI388410
aI391460
aI416270
aI431270
aI264240
aI34270
aI444090
aI370770
aI484950
aa(lp4457
I24200
aaa(lp4458
V76561198075980051
p4459
aI10
a(lp4460
I10
aI80
aI34870
aI227300
aI730
aa(lp4461
I570
aaa(lp4462
V76561198312931134
p4463
aI7
a(lp4464
I227300
aI730
aa(lp4465
aa(lp4466
V76561198317825845
p4467
aI2
a(lp4468
I433850
aa(lp4469
aa(lp4470
V76561198372878827
p4471
aI1
a(lp4472
I730
aa(lp4473
aa(lp4474
V76561198215237565
p4475
aI19
a(lp4476
I218230
aI230410
aI107410
aI295110
aI433850
aI304930
aI730
aI346110
aI407530
aI359550
aI273350
aI530620
aa(lp4477
aa(lp4478
V76561198559113775
p4479
aI10
a(lp4480
I730
aI244930
aI444090
aa(lp4481
I570
aaa(lp4482
V76561198138773063
p4483
aI159
a(lp4484
I4000
aI12120
aI8980
aI24240
aI202990
aI212910
aI51100
aI208090
aI272350
aI265630
aI218620
aI265930
aI209160
aI209170
aI302830
aI304930
aI13520
aI220240
aI233270
aI227940
aI322500
aI209660
aI730
aI391460
aI393420
aI311210
aI433350
aI433850
aI444090
aa(lp4485
I440
aaa(lp4486
V76561198121246745
p4487
aI23
a(lp4488
I240
aI730
aI202090
aI252490
aI378120
aI427250
aa(lp4489
aa(lp4490
V76561198366862502
p4491
aI0
a(lp4492
ag4489
aa(lp4493
V76561198191941202
p4494
aI15
a(lp4495
I550
aI730
aI271590
aI381210
aI431960
aI433850
aI385760
aI273350
aI466240
aa(lp4496
I570
aaa(lp4497
V76561198372710395
p4498
aI3
a(lp4499
I730
aI555570
aa(lp4500
aa(lp4501
V76561198375087442
p4502
aI1
a(lp4503
I730
aa(lp4504
aa(lp4505
V76561198363003475
p4506
aI1
a(lp4507
I730
aa(lp4508
aa(lp4509
V76561198383331567
p4510
aI0
a(lp4511
ag4508
aa(lp4512
V76561198381379490
p4513
aI6
a(lp4514
I230410
aI730
aa(lp4515
aa(lp4516
V76561197970521346
p4517
aI8
a(lp4518
I240
aI10
aI730
aa(lp4519
aa(lp4520
V76561198345366432
p4521
aI5
a(lp4522
I730
aI213670
aI444090
aa(lp4523
aa(lp4524
V76561198378778021
p4525
aI29
a(lp4526
I730
aa(lp4527
aa(lp4528
V76561198382971280
p4529
aI1
a(lp4530
I730
aa(lp4531
aa(lp4532
V76561198214063876
p4533
aI3
a(lp4534
I272350
aa(lp4535
I570
aaa(lp4536
V76561198373243617
p4537
aI2
a(lp4538
I433850
aa(lp4539
aa(lp4540
V76561198285269824
p4541
aI22
a(lp4542
I214420
aI252950
aI301520
aI291480
aI730
aI506540
aa(lp4543
I440
aaa(lp4544
V76561198334851794
p4545
aI7
a(lp4546
I730
aI444090
aa(lp4547
aa(lp4548
V76561198366563435
p4549
aI3
a(lp4550
I221100
aI730
aa(lp4551
aa(lp4552
V76561198092385011
p4553
aI29
a(lp4554
I230410
aI223710
aI224260
aI238430
aI302830
aI304930
aI227940
aI730
aI316390
aI349700
aI355180
aI389170
aI48000
aa(lp4555
I440
aI24200
aaa(lp4556
V76561198155998479
p4557
aI4
a(lp4558
I251170
aI253430
aI433850
aa(lp4559
aa(lp4560
V76561198269684425
p4561
aI26
a(lp4562
I550
aI9930
aI12750
aI227300
aI212070
aI218230
aI236390
aI34870
aI222880
aI304930
aI321040
aI730
aI310380
aI273350
aI444200
aa(lp4563
aa(lp4564
V76561198161802548
p4565
aI99
a(lp4566
I4000
aI35140
aI72850
aI104900
aI219640
aI265630
aI242760
aI218620
aI250320
aI251570
aI252950
aI107410
aI264710
aI271590
aI228380
aI272860
aI222880
aI295110
aI433850
aI304930
aI313120
aI221380
aI238320
aI331200
aI730
aI333930
aI344760
aI346110
aI407530
aI346900
aI363970
aI292030
aI291550
aI352460
aI311210
aI359550
aI431240
aI440900
aI584210
aa(lp4567
aa(lp4568
V76561198251413266
p4569
aI23
a(lp4570
I4000
aI620
aI233450
aI244850
aI246900
aI107410
aI550
aI730
aI598330
aa(lp4571
I440
aI1840
aaa(lp4572
V76561198269449163
p4573
aI17
a(lp4574
I304930
aI314700
aI730
aI346900
aI444090
aI473630
aI485310
aI554530
aI559500
aI204300
aI236150
aa(lp4575
aa(lp4576
V76561198369632854
p4577
aI3
a(lp4578
I433850
aa(lp4579
aa(lp4580
V76561198163483419
p4581
aI20
a(lp4582
I7940
aI203160
aI2870
aI39150
aI209650
aI209660
aI214490
aI730
aI372000
aI311210
aI292730
aI393100
aa(lp4583
aa(lp4584
V76561198279789917
p4585
aI7
a(lp4586
I10
aI730
aa(lp4587
I440
aaa(lp4588
V76561198260749556
p4589
aI3
a(lp4590
I730
aa(lp4591
aa(lp4592
V76561198219367065
p4593
aI8
a(lp4594
I730
aI323370
aI304930
aa(lp4595
aa(lp4596
V76561198382587833
p4597
aI2
a(lp4598
I433850
aa(lp4599
aa(lp4600
V76561198272872467
p4601
aI10
a(lp4602
I113400
aI298240
aI730
aa(lp4603
I440
aI570
aaa(lp4604
V76561198361429227
p4605
aI6
a(lp4606
I252950
aI730
aI444090
aI506540
aa(lp4607
aa(lp4608
V76561198378056944
p4609
aI1
a(lp4610
I730
aa(lp4611
aa(lp4612
V76561198386980489
p4613
aI1
a(lp4614
I730
aa(lp4615
aa(lp4616
V76561198316680593
p4617
aI0
a(lp4618
ag4615
aa(lp4619
V76561198093921290
p4620
aI104
a(lp4621
I4000
aI240
aI17410
aI8190
aI214360
aI730
aI204360
aI202990
aI221260
aI218060
aI208090
aI212500
aI234710
aI234160
aI250460
aI250760
aI252950
aI49520
aI263060
aI211820
aI550
aI271590
aI287260
aI301520
aI304050
aI304930
aI274940
aI209650
aI209660
aI333930
aI225420
aI250900
aI346900
aI298630
aI363970
aI391540
aI253030
aI394310
aI395200
aI311210
aI431240
aI444090
aI533300
aa(lp4622
I440
aI259080
aaa(lp4623
V76561198383347869
p4624
aI2
a(lp4625
I433850
aa(lp4626
aa(lp4627
V76561198312973517
p4628
aI12
a(lp4629
I253710
aI321040
aI730
aI431240
aI444090
aa(lp4630
aa(lp4631
V76561198272847559
p4632
aI27
a(lp4633
I201870
aI72850
aI242760
aI16700
aI40970
aI304930
aI730
aI335240
aa(lp4634
aa(lp4635
V76561197963597257
p4636
aI14
a(lp4637
I10
aI4000
aI431240
aa(lp4638
I440
aaa(lp4639
V76561198261435456
p4640
aI10
a(lp4641
I4000
aI265930
aI322170
aI730
aI354240
aI399940
aI427730
aa(lp4642
aa(lp4643
V76561198074510857
p4644
aI16
a(lp4645
I105600
aI200710
aI271590
aI730
aI578080
aa(lp4646
I570
aaa(lp4647
V76561198377314762
p4648
aI4
a(lp4649
I730
aI433850
aa(lp4650
aa(lp4651
V76561198380667241
p4652
aI3
a(lp4653
I433850
aI578080
aa(lp4654
aa(lp4655
V76561198116936463
p4656
aI15
a(lp4657
I202970
aI730
aI339610
aa(lp4658
I570
aaa(lp4659
V76561198387023943
p4660
aI1
a(lp4661
I578080
aa(lp4662
aa(lp4663
V76561198380081778
p4664
aI3
a(lp4665
I433850
aI578080
aa(lp4666
aa(lp4667
V76561198379250609
p4668
aI2
a(lp4669
I433850
aa(lp4670
aa(lp4671
V76561198101569722
p4672
aI0
a(lp4673
ag4670
aa(lp4674
V76561198306817370
p4675
aI0
a(lp4676
ag4670
aa(lp4677
V76561198068410547
p4678
aI8
a(lp4679
I10
aI730
aI433850
aa(lp4680
aa(lp4681
V76561198380397749
p4682
aI0
a(lp4683
ag4680
aa(lp4684
V76561198320973895
p4685
aI52
a(lp4686
I204360
aI108600
aI333600
aI351490
aI275100
aI355980
aI378930
aI385800
aI306040
aI314020
aI355150
aI204180
aI274560
aI314450
aI394510
aI391260
aI397500
aI407230
aI341310
aI396160
aI399790
aI420110
aI429620
aI430960
aI431960
aI434650
aI331710
aI354850
aI368900
aI385200
aI395980
aI397620
aI410590
aI416270
aI431270
aI432150
aI438320
aI448830
aI204300
aI473460
aI487700
aI495990
aI504370
aI512900
aI602520
aa(lp4687
I570
aaa(lp4688
V76561198317843224
p4689
aI7
a(lp4690
I550
aa(lp4691
I570
aaa(lp4692
V76561198099084391
p4693
aI0
a(lp4694
ag4691
aa(lp4695
V76561198338275051
p4696
aI4
a(lp4697
I730
aa(lp4698
aa(lp4699
V76561198311228699
p4700
aI191
a(lp4701
I4000
aI70100
aI294040
aI304930
aI307070
aI291480
aI321400
aI329950
aI331470
aI432150
aI730
aI340820
aI350810
aI382120
aI383030
aI385800
aI392050
aI397620
aI416270
aI407750
aI473620
aI473630
aI400240
aI400250
aI444090
aI410560
aI447880
aI458520
aI486360
aI489220
aI503820
aI489520
aa(lp4702
I440
aaa(lp4703
V76561198386515172
p4704
aI2
a(lp4705
I433850
aa(lp4706
aa(lp4707
V76561198365091992
p4708
aI2
a(lp4709
I433850
aa(lp4710
aa(lp4711
V76561198371355080
p4712
aI4
a(lp4713
I730
aa(lp4714
aa(lp4715
V76561198062858107
p4716
aI2
a(lp4717
I730
aa(lp4718
aa(lp4719
V76561198236585486
p4720
aI149
a(lp4721
I24740
aI20900
aI6120
aI47870
aI102840
aI220440
aI203160
aI10
aI500
aI252110
aI241930
aI367670
aI8980
aI49520
aI387290
aI291550
aI388410
aI436150
aI105450
aI287450
aI438270
aI446560
aI495910
aI568810
aI204300
aa(lp4722
aa(lp4723
V76561198356077403
p4724
aI2
a(lp4725
I730
aa(lp4726
aa(lp4727
V76561198371840181
p4728
aI3
a(lp4729
I433850
aI439700
aa(lp4730
aa(lp4731
V76561198363508854
p4732
aI3
a(lp4733
I431960
aI433850
aa(lp4734
aa(lp4735
V76561198373764821
p4736
aI10
a(lp4737
I550
aI304930
aI322330
aI553640
aI563560
aa(lp4738
I440
aaa(lp4739
V76561198364865747
p4740
aI2
a(lp4741
I730
aI459510
aa(lp4742
aa(lp4743
V76561198163139275
p4744
aI2
a(lp4745
a(lp4746
I570
aaa(lp4747
V76561198374918123
p4748
aI2
a(lp4749
I433850
aa(lp4750
aa(lp4751
V76561198128008131
p4752
aI19
a(lp4753
I4000
aI550
aI214420
aI233450
aI304930
aI238320
aI730
aI346110
aI361420
aI431240
aI379720
aI581630
aa(lp4754
I440
aaa(lp4755
V76561198141615706
p4756
aI165
a(lp4757
I300
aI4000
aI550
aI70000
aI92100
aI24240
aI104900
aI91310
aI222160
aI201790
aI208090
aI230410
aI236390
aI224260
aI232750
aI41070
aI231430
aI10
aI220
aI240
aI620
aI730
aI218620
aI219640
aI251060
aI252490
aI251170
aI264690
aI265930
aI244450
aI222880
aI201810
aI297410
aI238460
aI286690
aI287390
aI301640
aI238090
aI306040
aI263060
aI291480
aI227940
aI203160
aI274940
aI265550
aI282070
aI215470
aI334040
aI346110
aI407530
aI35450
aI21690
aI232090
aI1250
aI370100
aI269670
aI274560
aI383580
aI385800
aI238430
aI273350
aI575550
aa(lp4758
I440
aI259080
aaa(lp4759
V76561198208895021
p4760
aI25
a(lp4761
I10
aI550
aI218510
aI227300
aI232010
aI273110
aI286690
aI730
aa(lp4762
aa(lp4763
V76561198020066747
p4764
aI23
a(lp4765
I240
aI10180
aI550
aI43110
aI48190
aI620
aI24240
aI65800
aI205790
aI108800
aI204100
aI730
aI11020
aI49520
aI346900
aa(lp4766
I440
aI570
aaa(lp4767
V76561198108393032
p4768
aI3
a(lp4769
I730
aa(lp4770
I570
aaa(lp4771
V76561198381378327
p4772
aI2
a(lp4773
I433850
aa(lp4774
aa(lp4775
V76561198364217753
p4776
aI5
a(lp4777
I730
aa(lp4778
aa(lp4779
V76561198374834147
p4780
aI3
a(lp4781
I730
aI433850
aa(lp4782
aa(lp4783
V76561198108916874
p4784
aI7
a(lp4785
I444090
aa(lp4786
I570
aaa(lp4787
V76561198255079681
p4788
aI16
a(lp4789
I47870
aI282660
aI304930
aI10
aI240
aI730
aa(lp4790
aa(lp4791
V76561198213807775
p4792
aI7
a(lp4793
I304930
aI730
aI568810
aI506540
aa(lp4794
aa(lp4795
V76561198382906991
p4796
aI1
a(lp4797
I730
aa(lp4798
aa(lp4799
V76561198265060090
p4800
aI1
a(lp4801
I730
aa(lp4802
aa(lp4803
V76561198271933382
p4804
aI275
a(lp4805
I4000
aI550
aI105600
aI91310
aI99900
aI109600
aI208090
aI212070
aI218230
aI230410
aI236390
aI214420
aI206500
aI246420
aI218620
aI265930
aI274900
aI301520
aI302830
aI304930
aI224600
aI206420
aI322170
aI331470
aI274940
aI730
aI333600
aI346010
aI255710
aI383180
aI386070
aI386360
aI299360
aI420110
aI273350
aI324810
aI252950
aa(lp4806
I570
aaa(lp4807
V76561198147049787
p4808
aI0
a(lp4809
ag4806
aa(lp4810
V76561198283503830
p4811
aI0
a(lp4812
ag4806
aa(lp4813
V76561198347815068
p4814
aI10
a(lp4815
I105600
aI268750
aI730
aI389570
aI588430
aa(lp4816
aa(lp4817
V76561198386594941
p4818
aI2
a(lp4819
I242760
aI730
aa(lp4820
aa(lp4821
V76561198359634163
p4822
aI1
a(lp4823
I730
aa(lp4824
aa(lp4825
V76561198202569985
p4826
aI0
a(lp4827
ag4824
aa(lp4828
V76561198135238420
p4829
aI89
a(lp4830
I4000
aI1250
aI1930
aI204100
aI57690
aI230410
aI236390
aI242720
aI65930
aI12120
aI252490
aI252950
aI253900
aI253980
aI243450
aI227300
aI270090
aI271590
aI271860
aI275490
aI287120
aI292380
aI292620
aI292630
aI293180
aI297020
aI351030
aI301750
aI65790
aI302060
aI302080
aI304930
aI307070
aI277950
aI730
aI366440
aI382120
aI299360
aI444090
aI584210
aa(lp4831
aa(lp4832
V76561198378341124
p4833
aI2
a(lp4834
I730
aa(lp4835
aa(lp4836
V76561198373521390
p4837
aI3
a(lp4838
I433850
aa(lp4839
aa(lp4840
V76561198166505744
p4841
aI28
a(lp4842
I550
aI730
aI431960
aI433850
aI448510
aa(lp4843
I570
aaa(lp4844
V76561198340007980
p4845
aI1
a(lp4846
I730
aa(lp4847
aa(lp4848
V76561198370874918
p4849
aI2
a(lp4850
I433850
aa(lp4851
aa(lp4852
V76561198360948796
p4853
aI14
a(lp4854
I236390
aI237310
aI282900
aI301520
aI304930
aI322170
aI730
aI383080
aI431960
aI459820
aI436520
aa(lp4855
I440
aaa(lp4856
V76561198382314257
p4857
aI2
a(lp4858
I433850
aa(lp4859
aa(lp4860
V76561198113272332
p4861
aI51
a(lp4862
I4000
aI550
aI243870
aI224260
aI12120
aI12210
aI12220
aI304050
aI304930
aI312990
aI291550
aI444090
aI436520
aa(lp4863
I440
aI570
aaa(lp4864
V76561198137034604
p4865
aI5
a(lp4866
I730
aI433850
aa(lp4867
I570
aaa(lp4868
V76561198378363762
p4869
aI0
a(lp4870
ag4867
aa(lp4871
V76561198380731278
p4872
aI4
a(lp4873
I730
aa(lp4874
I570
aaa(lp4875
V76561198334531376
p4876
aI4
a(lp4877
I252950
aI730
aI444090
aa(lp4878
aa(lp4879
V76561198074728659
p4880
aI3
a(lp4881
I730
aI433850
aa(lp4882
aa(lp4883
V76561198384338397
p4884
aI6
a(lp4885
I730
aa(lp4886
aa(lp4887
V76561198244485186
p4888
aI4
a(lp4889
I730
aI433850
aI439700
aa(lp4890
aa(lp4891
V76561198374310080
p4892
aI2
a(lp4893
I433850
aa(lp4894
aa(lp4895
V76561198381157165
p4896
aI6
a(lp4897
I730
aI386360
aI359550
aa(lp4898
I570
aaa(lp4899
V76561198352467926
p4900
aI4
a(lp4901
I12120
aI730
aa(lp4902
aa(lp4903
V76561198387073381
p4904
aI1
a(lp4905
I730
aa(lp4906
aa(lp4907
V76561198371435356
p4908
aI2
a(lp4909
I433850
aa(lp4910
aa(lp4911
V76561198386528060
p4912
aI4
a(lp4913
I730
aI381210
aI433850
aa(lp4914
aa(lp4915
V76561198253501187
p4916
aI10
a(lp4917
I4000
aI239030
aI218620
aI304930
aI730
aI291550
aI280790
aI459510
aI466910
aI588430
aa(lp4918
aa(lp4919
V76561198365088785
p4920
aI3
a(lp4921
I206420
aI730
aa(lp4922
aa(lp4923
V76561198346177734
p4924
aI1
a(lp4925
I730
aa(lp4926
aa(lp4927
V76561198384649207
p4928
aI2
a(lp4929
I730
aa(lp4930
aa(lp4931
V76561198365529568
p4932
aI1
a(lp4933
I730
aa(lp4934
aa(lp4935
V76561198383316220
p4936
aI0
a(lp4937
ag4934
aa(lp4938
V76561198106887655
p4939
aI5
a(lp4940
I730
aa(lp4941
I570
aaa(lp4942
V76561198371785084
p4943
aI1
a(lp4944
I730
aa(lp4945
aa(lp4946
V76561198316529800
p4947
aI22
a(lp4948
I202970
aI254700
aI304050
aI304930
aI730
aI250900
aI291550
aI413150
aI273350
aI537180
aa(lp4949
I570
aaa(lp4950
V76561198134602645
p4951
aI6
a(lp4952
I434650
aI453480
aa(lp4953
I570
aaa(lp4954
V76561198161213701
p4955
aI64
a(lp4956
I4000
aI550
aI33930
aI204360
aI219640
aI208090
aI211500
aI230410
aI237110
aI91310
aI216250
aI218620
aI217490
aI269210
aI304930
aI206420
aI10
aI730
aI349700
aI355840
aI244930
aI444200
aa(lp4957
I440
aI570
aaa(lp4958
V76561198346277900
p4959
aI0
a(lp4960
ag4957
aa(lp4961
V76561198278301363
p4962
aI41
a(lp4963
I730
aI252490
aI433850
aa(lp4964
I570
aaa(lp4965
V76561198379393922
p4966
aI2
a(lp4967
I433850
aa(lp4968
aa(lp4969
V76561198380674394
p4970
aI2
a(lp4971
I433850
aa(lp4972
aa(lp4973
V76561198352222122
p4974
aI10
a(lp4975
I730
aI359550
aI433850
aI444090
aI578080
aa(lp4976
aa(lp4977
V76561198385474278
p4978
aI1
a(lp4979
I730
aa(lp4980
aa(lp4981
V76561198131274984
p4982
aI30
a(lp4983
I4000
aI8190
aI620
aI11020
aI113400
aI207140
aI238320
aI217980
aI227940
aI315640
aI232890
aI238590
aI223650
aI730
aI221380
aa(lp4984
I440
aI259080
aaa(lp4985
V76561198287986928
p4986
aI3
a(lp4987
I730
aa(lp4988
aa(lp4989
V76561198253218600
p4990
aI5
a(lp4991
I433850
aa(lp4992
I570
aaa(lp4993
V76561198275607822
p4994
aI6
a(lp4995
I381210
aI433850
aI555220
aa(lp4996
I570
aaa(lp4997
V76561198091113622
p4998
aI10
a(lp4999
I11020
aI227300
aI304930
aI730
aa(lp5000
I440
aaa(lp5001
V76561198150688323
p5002
aI2
a(lp5003
a(lp5004
I570
aaa(lp5005
V76561198160630788
p5006
aI20
a(lp5007
I4000
aI730
aI113400
aI272350
aI263760
aI322170
aI333930
aI363970
aI311210
aI244930
aI444090
aI214850
aa(lp5008
I440
aaa(lp5009
V76561198384130772
p5010
aI11
a(lp5011
I730
aI506540
aa(lp5012
aa(lp5013
V76561198385189023
p5014
aI1
a(lp5015
I730
aa(lp5016
aa(lp5017
V76561198249599634
p5018
aI963
a(lp5019
I252950
aI301520
aI304930
aI730
aI346110
aI407530
aI444090
aa(lp5020
aa(lp5021
V76561198304080510
p5022
aI20
a(lp5023
I243870
aI226320
aI252950
aI288160
aI304930
aI238090
aI227940
aI730
aI346900
aI291550
aI424280
aI537180
aI555570
aa(lp5024
aa(lp5025
V76561198162792801
p5026
aI4
a(lp5027
I433850
aa(lp5028
aa(lp5029
V76561198143033724
p5030
aI44
a(lp5031
I550
aI96100
aI224260
aI91310
aI216250
aI271590
aI301520
aI304930
aI238090
aI253430
aI730
aI386360
aI291550
aI280790
aI239140
aI444090
aI466910
aI219640
aa(lp5032
I440
aI570
aaa(lp5033
V76561198378336717
p5034
aI2
a(lp5035
I433850
aa(lp5036
aa(lp5037
V76561198361136419
p5038
aI1
a(lp5039
I730
aa(lp5040
aa(lp5041
V76561198166477682
p5042
aI40
a(lp5043
I240
aI17480
aI550
aI42680
aI42690
aI40950
aI40960
aI40970
aI40980
aI47400
aI227300
aI230410
aI236390
aI203160
aI107410
aI273110
aI222880
aI286940
aI304930
aI331470
aI730
aI391460
aI444090
aI444200
aa(lp5044
I440
aI570
aaa(lp5045
V76561198334860886
p5046
aI14
a(lp5047
I252490
aI271590
aI730
aI359550
aI433850
aI444640
aI578080
aa(lp5048
aa(lp5049
V76561198361120378
p5050
aI2
a(lp5051
I730
aI381210
aa(lp5052
aa(lp5053
V76561198368060629
p5054
aI6
a(lp5055
I730
aI555570
aI436520
aa(lp5056
aa(lp5057
V76561198101922091
p5058
aI86
a(lp5059
I4000
aI72850
aI730
aI204300
aI204360
aI104700
aI109400
aI206210
aI207230
aI236390
aI258700
aI272350
aI266070
aI202090
aI206500
aI239220
aI207140
aI252950
aI260410
aI273110
aI286940
aI293540
aI301520
aI304050
aI304930
aI314410
aI293500
aI319150
aI322170
aI323850
aI339610
aI344760
aI339280
aI356330
aI363970
aI386360
aI291550
aI444090
aa(lp5060
I440
aaa(lp5061
V76561198293697552
p5062
aI17
a(lp5063
I113400
aI304930
aI730
aI346900
aI386360
aa(lp5064
aa(lp5065
V76561198332331774
p5066
aI32
a(lp5067
I236390
aI238960
aI286940
aI301520
aI304930
aI730
aI316390
aI391460
aI412470
aI444090
aI457330
aI513000
aI534500
aI444200
aI557780
aI436520
aI588430
aa(lp5068
I440
aaa(lp5069
V76561198377856310
p5070
aI0
a(lp5071
ag5068
aa(lp5072
V76561198245462680
p5073
aI45
a(lp5074
I730
aI372000
aI436150
aI444090
aa(lp5075
I570
aaa(lp5076
V76561198222526524
p5077
aI12
a(lp5078
I4000
aI300080
aI730
aI507010
aa(lp5079
I570
aaa(lp5080
V76561198346460475
p5081
aI2
a(lp5082
a(lp5083
I570
aaa(lp5084
V76561198383223159
p5085
aI2
a(lp5086
I433850
aa(lp5087
aa(lp5088
V76561198370328431
p5089
aI2
a(lp5090
I433850
aa(lp5091
aa(lp5092
V76561198349726637
p5093
aI9
a(lp5094
I242760
aI730
aI433850
aa(lp5095
aa(lp5096
V76561198297984133
p5097
aI11
a(lp5098
I4000
aI304050
aI730
aI355180
aI466910
aa(lp5099
aa(lp5100
V76561198278135531
p5101
aI0
a(lp5102
ag5099
aa(lp5103
V76561198301902100
p5104
aI5
a(lp5105
I238960
aI730
aa(lp5106
aa(lp5107
V76561198383635177
p5108
aI2
a(lp5109
I433850
aa(lp5110
aa(lp5111
V76561198279142090
p5112
aI12
a(lp5113
I730
aI386360
aa(lp5114
aa(lp5115
V76561198314885979
p5116
aI8
a(lp5117
I304930
aI730
aa(lp5118
aa(lp5119
V76561198343049915
p5120
aI3
a(lp5121
I433850
aI251570
aa(lp5122
aa(lp5123
V76561198310234349
p5124
aI8
a(lp5125
I10
aI240
aI730
aI444090
aa(lp5126
I570
aaa(lp5127
V76561198365421903
p5128
aI7
a(lp5129
I433850
aa(lp5130
aa(lp5131
V76561198298043632
p5132
aI7
a(lp5133
I730
aI203160
aa(lp5134
aa(lp5135
V76561198072046393
p5136
aI42
a(lp5137
I4000
aI24740
aI10180
aI10190
aI42700
aI2210
aI227300
aI236390
aI246280
aI242760
aI239030
aI218620
aI47830
aI249130
aI304930
aI63380
aI313160
aI730
aI335330
aI291550
aI407250
aa(lp5138
I440
aI570
aaa(lp5139
V76561198060351432
p5140
aI9
a(lp5141
I10
aI271590
aI282660
aI730
aa(lp5142
aa(lp5143
V76561198374766797
p5144
aI3
a(lp5145
I433850
aa(lp5146
aa(lp5147
V76561198338946921
p5148
aI7
a(lp5149
I730
aI230410
aa(lp5150
aa(lp5151
V76561198058856755
p5152
aI48
a(lp5153
I4000
aI7940
aI7520
aI730
aI218620
aI273110
aI282660
aI304930
aI321040
aI386360
aa(lp5154
aa(lp5155
V76561198134151746
p5156
aI6
a(lp5157
I730
aI218620
aI381210
aI273350
aa(lp5158
I440
aI570
aaa(lp5159
V76561198356380200
p5160
aI0
a(lp5161
ag5158
aa(lp5162
V76561198314981421
p5163
aI2
a(lp5164
a(lp5165
I570
aaa(lp5166
V76561198236911020
p5167
aI112
a(lp5168
I4000
aI1930
aI99900
aI113400
aI208090
aI236390
aI272350
aI242760
aI252490
aI273110
aI282660
aI286940
aI293540
aI301520
aI304050
aI304930
aI312990
aI227940
aI321040
aI322500
aI274940
aI730
aI335240
aI335330
aI339610
aI346120
aI346900
aI349700
aI355180
aI355840
aI361700
aI363970
aI378270
aI380600
aI382850
aI385270
aI386360
aI291550
aI387930
aI388120
aI389570
aI397980
aI403570
aI299360
aI412130
aI280790
aI414290
aI417860
aI424280
aI434010
aI444090
aI444790
aI448250
aI453960
aI454930
aI463040
aI463050
aI466790
aI466910
aI477980
aI485410
aI485650
aI492800
aI502550
aI319630
aI466240
aI533150
aI550040
aI569540
aa(lp5169
I440
aI570
aaa(lp5170
V76561198141219618
p5171
aI203
a(lp5172
I4000
aI550
aI96100
aI211580
aI104900
aI252490
aI257830
aI259740
aI248820
aI265930
aI8930
aI222880
aI284710
aI294020
aI294230
aI264520
aI238460
aI301190
aI303390
aI243470
aI304930
aI306410
aI313650
aI317510
aI319230
aI319320
aI203160
aI218620
aI333600
aI282070
aI335900
aI339130
aI2400
aI340300
aI340310
aI341780
aI343090
aI345440
aI350010
aI730
aI104200
aI263980
aI315430
aI341500
aI368650
aI369420
aI219740
aI371420
aI375850
aI390200
aI234140
aI204180
aI274560
aI314450
aI394280
aI396790
aI391260
aI397500
aI407230
aI398710
aI401190
aI403510
aI341310
aI396160
aI399790
aI359550
aI428430
aI429580
aI429950
aI368900
aI485890
aI584210
aa(lp5173
I570
aaa(lp5174
V76561198321894896
p5175
aI2
a(lp5176
I730
aa(lp5177
aa(lp5178
V76561198362865634
p5179
aI2
a(lp5180
I730
aa(lp5181
aa(lp5182
V76561198558328692
p5183
aI4
a(lp5184
I346110
aI433850
aa(lp5185
aa(lp5186
V76561198388799975
p5187
aI2
a(lp5188
I433850
aa(lp5189
aa(lp5190
V76561198286928737
p5191
aI0
a(lp5192
ag5189
aa(lp5193
V76561198381534351
p5194
aI5
a(lp5195
I284160
aI730
aI578080
aa(lp5196
aa(lp5197
V76561198374485753
p5198
aI3
a(lp5199
I433850
aa(lp5200
aa(lp5201
V76561198266762223
p5202
aI12
a(lp5203
I252950
aI730
aI381210
aI389570
aI444090
aI466910
aI513650
aa(lp5204
aa(lp5205
V76561198368978910
p5206
aI1
a(lp5207
I730
aa(lp5208
aa(lp5209
V76561198382186305
p5210
aI2
a(lp5211
I433850
aa(lp5212
aa(lp5213
V76561198356175782
p5214
aI10
a(lp5215
I301520
aI302830
aI730
aI291550
aI444090
aa(lp5216
I440
aaa(lp5217
V76561198374203622
p5218
aI0
a(lp5219
ag5216
aa(lp5220
V76561198129013843
p5221
aI5
a(lp5222
I433850
aa(lp5223
I570
aaa(lp5224
V76561198340895108
p5225
aI11
a(lp5226
I730
aI264710
aI301520
aI302830
aI304930
aI227940
aI299360
aI280790
aI444090
aa(lp5227
I440
aaa(lp5228
V76561198204828729
p5229
aI27
a(lp5230
I304930
aI227940
aI730
aI335240
aI381210
aI291550
aI299360
aI280790
aI444090
aI513650
aI568810
aa(lp5231
I570
aaa(lp5232
V76561198347724785
p5233
aI1
a(lp5234
I730
aa(lp5235
aa(lp5236
V76561198281389960
p5237
aI7
a(lp5238
I730
aI407250
aI459510
aa(lp5239
aa(lp5240
V76561198378949713
p5241
aI2
a(lp5242
I730
aa(lp5243
I570
aaa(lp5244
V76561198358503737
p5245
aI8
a(lp5246
I224260
aI304930
aI730
aI291550
aa(lp5247
aa(lp5248
V76561198323661422
p5249
aI24
a(lp5250
I10
aI240
aI730
aI346330
aI557810
aa(lp5251
I570
aaa(lp5252
V76561198202124342
p5253
aI0
a(lp5254
ag5251
aa(lp5255
V76561198190023127
p5256
aI19
a(lp5257
I730
aa(lp5258
aa(lp5259
V76561198385324292
p5260
aI1
a(lp5261
I730
aa(lp5262
aa(lp5263
V76561198381705844
p5264
aI1
a(lp5265
I730
aa(lp5266
aa(lp5267
V76561198233057776
p5268
aI28
a(lp5269
I304930
aI10
aI730
aI444090
aa(lp5270
I440
aI570
aaa(lp5271
V76561198367134797
p5272
aI33
a(lp5273
I433850
aI730
aa(lp5274
I570
aaa(lp5275
V76561198367498961
p5276
aI1
a(lp5277
I730
aa(lp5278
aa(lp5279
V76561198355685012
p5280
aI1
a(lp5281
I730
aa(lp5282
aa(lp5283
V76561198325417072
p5284
aI37
a(lp5285
I4000
aI105600
aI227300
aI242760
aI252490
aI263280
aI266010
aI271590
aI284160
aI730
aI252950
aI571740
aI578080
aa(lp5286
I440
aaa(lp5287
V76561198305249397
p5288
aI7
a(lp5289
I321040
aI730
aI444090
aa(lp5290
aa(lp5291
V76561198381086690
p5292
aI2
a(lp5293
I433850
aa(lp5294
aa(lp5295
V76561198171140261
p5296
aI0
a(lp5297
ag5294
aa(lp5298
V76561198378208445
p5299
aI7
a(lp5300
I217200
aI730
aa(lp5301
aa(lp5302
V76561198351786162
p5303
aI7
a(lp5304
I230410
aI730
aI444090
aI555570
aa(lp5305
aa(lp5306
V76561198143946485
p5307
aI122
a(lp5308
I4000
aI20900
aI550
aI35140
aI47870
aI620
aI105600
aI24240
aI104900
aI200260
aI206210
aI208090
aI212070
aI218230
aI230410
aI236390
aI272350
aI248570
aI265630
aI224260
aI244850
aI218620
aI252490
aI49520
aI217490
aI262280
aI211820
aI249050
aI271590
aI293260
aI293540
aI301520
aI304050
aI304930
aI227940
aI317400
aI205790
aI331470
aI240
aI730
aI333930
aI346900
aI348670
aI363970
aI385770
aI387990
aI389300
aI389570
aI252950
aI299360
aI236110
aI280790
aI208650
aI359550
aI428430
aI310380
aI381210
aI273350
aI397060
aI402560
aI584210
aa(lp5309
I440
aI570
aI630
aaa(lp5310
V76561198385982954
p5311
aI2
a(lp5312
I730
aa(lp5313
aa(lp5314
V76561198138248271
p5315
aI48
a(lp5316
I4000
aI12750
aI550
aI105600
aI109600
aI230410
aI236390
aI265630
aI271290
aI218620
aI252490
aI252950
aI222880
aI286730
aI293540
aI304050
aI304930
aI241930
aI10
aI730
aI349700
aI365670
aI393420
aI234140
aI299360
aI273350
aa(lp5317
I440
aaa(lp5318
V76561198382344010
p5319
aI3
a(lp5320
I433850
aa(lp5321
aa(lp5322
V76561198375077352
p5323
aI1
a(lp5324
I730
aa(lp5325
aa(lp5326
V76561198149332727
p5327
aI9
a(lp5328
I10180
aI10190
aI21100
aI42680
aI42690
aI258880
aI730
aa(lp5329
aa(lp5330
V76561198359156286
p5331
aI2
a(lp5332
I730
aa(lp5333
aa(lp5334
V76561198268925172
p5335
aI0
a(lp5336
ag5333
aa(lp5337
V76561198353349177
p5338
aI4
a(lp5339
I730
aI302830
aI304930
aa(lp5340
aa(lp5341
V76561198274745886
p5342
aI12
a(lp5343
I286940
aI304930
aI730
aI394380
aI424280
aI244930
aa(lp5344
aa(lp5345
V76561198258170018
p5346
aI9
a(lp5347
I295110
aI433850
aI555570
aa(lp5348
aa(lp5349
V76561198386733132
p5350
aI0
a(lp5351
ag5348
aa(lp5352
V76561198101363138
p5353
aI14
a(lp5354
I227940
aI730
aa(lp5355
I440
aI570
aaa(lp5356
V76561198296500582
p5357
aI10
a(lp5358
I304930
aI730
aI444090
aa(lp5359
aa(lp5360
V76561198292043710
p5361
aI7
a(lp5362
a(lp5363
I570
aaa(lp5364
V76561198285476740
p5365
aI1
a(lp5366
I730
aa(lp5367
aa(lp5368
V76561198205836891
p5369
aI41
a(lp5370
I4000
aI550
aI230410
aI224260
aI242050
aI271590
aI286940
aI238460
aI301520
aI304050
aI304930
aI272510
aI730
aI282070
aI339610
aI291550
aI299360
aI236110
aI444090
aI582500
aa(lp5371
I440
aI630
aaa(lp5372
V76561198352513374
p5373
aI2
a(lp5374
a(lp5375
I570
aaa(lp5376
V76561198375314838
p5377
aI2
a(lp5378
I433850
aa(lp5379
aa(lp5380
V76561198385897865
p5381
aI2
a(lp5382
I433850
aa(lp5383
aa(lp5384
V76561198381529831
p5385
aI1
a(lp5386
I730
aa(lp5387
aa(lp5388
V76561198365985542
p5389
aI7
a(lp5390
I47870
aI40970
aI730
aI380600
aI444090
aa(lp5391
aa(lp5392
V76561198376915543
p5393
aI4
a(lp5394
I359550
aI433850
aa(lp5395
aa(lp5396
V76561198282241435
p5397
aI14
a(lp5398
I304930
aI227940
aI10
aI240
aI730
aI506540
aa(lp5399
I570
aaa(lp5400
V76561198345172306
p5401
aI20
a(lp5402
I730
aI230410
aI271590
aI322330
aI399580
aI406090
aI433850
aI546450
aI554530
aI578080
aI589390
aa(lp5403
aa(lp5404
V76561198258008052
p5405
aI56
a(lp5406
I17460
aI105600
aI207610
aI47410
aI218230
aI236390
aI252490
aI107410
aI227300
aI273110
aI286940
aI302830
aI304050
aI304930
aI291480
aI227940
aI48700
aI730
aI325610
aI336510
aI337950
aI363970
aI365670
aI381180
aI416450
aI427270
aI438040
aI394360
aI506540
aa(lp5407
I440
aaa(lp5408
V76561198236720474
p5409
aI10
a(lp5410
I730
aa(lp5411
I570
aaa(lp5412
V76561198201673491
p5413
aI14
a(lp5414
I44350
aI284810
aI730
aa(lp5415
aa(lp5416
V76561198386025487
p5417
aI2
a(lp5418
I433850
aa(lp5419
aa(lp5420
V76561198272254585
p5421
aI7
a(lp5422
I4000
aI242760
aI252950
aI271590
aI730
aa(lp5423
I440
aaa(lp5424
V76561198262758809
p5425
aI12
a(lp5426
I12210
aI8190
aI252950
aI313160
aI730
aI444090
aI447020
aI506540
aa(lp5427
I259080
aaa(lp5428
V76561198317308422
p5429
aI12
a(lp5430
I252950
aI227940
aI730
aI291550
aI436150
aI444090
aa(lp5431
I24200
aaa(lp5432
V76561198176366622
p5433
aI1241
a(lp5434
I7940
aI1250
aI34900
aI10180
aI10190
aI33930
aI104200
aI227300
aI236390
aI224260
aI242860
aI233250
aI244210
aI252490
aI252950
aI107410
aI265210
aI221100
aI269170
aI270880
aI271590
aI222880
aI279480
aI284160
aI295110
aI296300
aI313160
aI233610
aI322500
aI324310
aI328070
aI730
aI333950
aI225540
aI340070
aI344760
aI349260
aI255710
aI332790
aI371450
aI373440
aI377160
aI380220
aI397340
aI400800
aI393380
aI407060
aI412880
aI418520
aI368500
aI359550
aI239140
aI431240
aI327140
aI450540
aI451840
aI453790
aI460930
aI360430
aI462030
aI464760
aI465190
aI470220
aI234630
aI507380
aI508170
aI447020
aI292730
aI460920
aI578080
aI581840
aa(lp5435
I440
aI1840
aaa(lp5436
V76561198720144608
p5437
aI3
a(lp5438
I730
aI433850
aa(lp5439
aa(lp5440
V76561198341898818
p5441
aI4
a(lp5442
I730
aI444090
aa(lp5443
aa(lp5444
V76561198344774169
p5445
aI13
a(lp5446
I550
aI730
aI266510
aI433850
aa(lp5447
aa(lp5448
V76561198129775175
p5449
aI7
a(lp5450
I431960
aI433850
aa(lp5451
I570
aaa(lp5452
V76561198271895400
p5453
aI2
a(lp5454
I227300
aI730
aa(lp5455
aa(lp5456
V76561198146440541
p5457
aI2
a(lp5458
a(lp5459
I570
aaa(lp5460
V76561198366131260
p5461
aI2
a(lp5462
I433850
aI439700
aa(lp5463
aa(lp5464
V76561198461848895
p5465
aI6
a(lp5466
I286940
aI730
aa(lp5467
aa(lp5468
V76561198083488429
p5469
aI36
a(lp5470
I240
aI4000
aI33900
aI33930
aI208090
aI224580
aI242760
aI218620
aI238320
aI251570
aI252490
aI107410
aI221100
aI304930
aI730
aI333930
aI380600
aI236110
aa(lp5471
I570
aaa(lp5472
V76561198357806848
p5473
aI1
a(lp5474
I730
aa(lp5475
aa(lp5476
V76561198374320231
p5477
aI2
a(lp5478
I433850
aa(lp5479
aa(lp5480
V76561198385493530
p5481
aI4
a(lp5482
I730
aI381210
aa(lp5483
aa(lp5484
V76561198374284870
p5485
aI2
a(lp5486
I433850
aa(lp5487
aa(lp5488
V76561198207668005
p5489
aI0
a(lp5490
ag5487
aa.